
_cgroupstests:     file format elf32-i386


Disassembly of section .text:

00000000 <empty_string>:
  suppress = _suppress;
}

// Set the given string length to empty.
static void empty_string(char* string, int length)
{
       0:	55                   	push   %ebp
       1:	89 e5                	mov    %esp,%ebp
       3:	83 ec 0c             	sub    $0xc,%esp
     memset(string, 0, length);
       6:	52                   	push   %edx
       7:	6a 00                	push   $0x0
       9:	50                   	push   %eax
       a:	e8 0e b7 00 00       	call   b71d <memset>
}
       f:	83 c4 10             	add    $0x10,%esp
      12:	c9                   	leave  
      13:	c3                   	ret    

00000014 <print_error>:
#include "user.h"

#define REMOVE_2_ADDITIONAL_CHARS 2

void print_error(const char* name, unsigned long int x, unsigned long int y,
                 const char* file, int line) {
      14:	55                   	push   %ebp
      15:	89 e5                	mov    %esp,%ebp
      17:	57                   	push   %edi
      18:	56                   	push   %esi
      19:	53                   	push   %ebx
      1a:	83 ec 0c             	sub    $0xc,%esp
      1d:	8b 75 08             	mov    0x8(%ebp),%esi
    for (int i = 0; i < strlen(name) + strlen("[RUNNING] ") + REMOVE_2_ADDITIONAL_CHARS; i++)
      20:	bb 00 00 00 00       	mov    $0x0,%ebx
      25:	eb 15                	jmp    3c <print_error+0x28>
        printf(1, "\b");
      27:	83 ec 08             	sub    $0x8,%esp
      2a:	68 3c bf 00 00       	push   $0xbf3c
      2f:	6a 01                	push   $0x1
      31:	e8 31 bb 00 00       	call   bb67 <printf>

#define REMOVE_2_ADDITIONAL_CHARS 2

void print_error(const char* name, unsigned long int x, unsigned long int y,
                 const char* file, int line) {
    for (int i = 0; i < strlen(name) + strlen("[RUNNING] ") + REMOVE_2_ADDITIONAL_CHARS; i++)
      36:	83 c3 01             	add    $0x1,%ebx
      39:	83 c4 10             	add    $0x10,%esp
      3c:	83 ec 0c             	sub    $0xc,%esp
      3f:	56                   	push   %esi
      40:	e8 be b6 00 00       	call   b703 <strlen>
      45:	89 c7                	mov    %eax,%edi
      47:	c7 04 24 3e bf 00 00 	movl   $0xbf3e,(%esp)
      4e:	e8 b0 b6 00 00       	call   b703 <strlen>
      53:	8d 44 07 02          	lea    0x2(%edi,%eax,1),%eax
      57:	83 c4 10             	add    $0x10,%esp
      5a:	39 d8                	cmp    %ebx,%eax
      5c:	77 c9                	ja     27 <print_error+0x13>
        printf(1, "\b");
    printf(1, "[FAILED] %s - expected %d but got %d (%s:%d)\n",
      5e:	83 ec 04             	sub    $0x4,%esp
      61:	ff 75 18             	pushl  0x18(%ebp)
      64:	ff 75 14             	pushl  0x14(%ebp)
      67:	ff 75 10             	pushl  0x10(%ebp)
      6a:	ff 75 0c             	pushl  0xc(%ebp)
      6d:	56                   	push   %esi
      6e:	68 38 ca 00 00       	push   $0xca38
      73:	6a 01                	push   $0x1
      75:	e8 ed ba 00 00       	call   bb67 <printf>
           name, x, y, file, line);
}
      7a:	83 c4 20             	add    $0x20,%esp
      7d:	8d 65 f4             	lea    -0xc(%ebp),%esp
      80:	5b                   	pop    %ebx
      81:	5e                   	pop    %esi
      82:	5f                   	pop    %edi
      83:	5d                   	pop    %ebp
      84:	c3                   	ret    

00000085 <get_kernel_total_memory>:

//######################################## Helper functions#######################

//Parse memory.stat info and fetch "kernel" value
int get_kernel_total_memory(char * mem_stat_info)
{
      85:	55                   	push   %ebp
      86:	89 e5                	mov    %esp,%ebp
      88:	83 ec 10             	sub    $0x10,%esp
  char * kernel_value = 0;

  kernel_value = strstr(mem_stat_info, (char *)"kernel - ");
      8b:	68 49 bf 00 00       	push   $0xbf49
      90:	ff 75 08             	pushl  0x8(%ebp)
      93:	e8 7d b8 00 00       	call   b915 <strstr>

  return atoi(kernel_value);
      98:	89 04 24             	mov    %eax,(%esp)
      9b:	e8 54 b7 00 00       	call   b7f4 <atoi>
}
      a0:	c9                   	leave  
      a1:	c3                   	ret    

000000a2 <is_valid_controller_type>:

// Return if controller type is valid.
int is_valid_controller_type(int controller_type) {
      a2:	55                   	push   %ebp
      a3:	89 e5                	mov    %esp,%ebp
  return controller_type >= CPU_CNT &&
      a5:	83 7d 08 03          	cmpl   $0x3,0x8(%ebp)
      a9:	0f 96 c0             	setbe  %al
      ac:	0f b6 c0             	movzbl %al,%eax
    controller_type <= CPU_CNT + CONTROLLER_COUNT - 1;
}
      af:	5d                   	pop    %ebp
      b0:	c3                   	ret    

000000b1 <get_controller_name>:

// Return controller name.
char* get_controller_name(int controller_type) {
      b1:	55                   	push   %ebp
      b2:	89 e5                	mov    %esp,%ebp
      b4:	53                   	push   %ebx
      b5:	8b 5d 08             	mov    0x8(%ebp),%ebx
  if (!is_valid_controller_type(controller_type)) {
      b8:	53                   	push   %ebx
      b9:	e8 e4 ff ff ff       	call   a2 <is_valid_controller_type>
      be:	83 c4 04             	add    $0x4,%esp
      c1:	85 c0                	test   %eax,%eax
      c3:	74 0b                	je     d0 <get_controller_name+0x1f>
    return 0;
  }

  return controller_names[controller_type];
      c5:	c1 e3 04             	shl    $0x4,%ebx
      c8:	8d 83 00 40 01 00    	lea    0x14000(%ebx),%eax
      ce:	eb 05                	jmp    d5 <get_controller_name+0x24>
}

// Return controller name.
char* get_controller_name(int controller_type) {
  if (!is_valid_controller_type(controller_type)) {
    return 0;
      d0:	b8 00 00 00 00       	mov    $0x0,%eax
  }

  return controller_names[controller_type];
}
      d5:	8b 5d fc             	mov    -0x4(%ebp),%ebx
      d8:	c9                   	leave  
      d9:	c3                   	ret    

000000da <set_suppress>:

// Turn on debug messeges or turn them off.
void set_suppress(char _suppress) {
      da:	55                   	push   %ebp
      db:	89 e5                	mov    %esp,%ebp
  suppress = _suppress;
      dd:	8b 45 08             	mov    0x8(%ebp),%eax
      e0:	a2 44 42 01 00       	mov    %al,0x14244
}
      e5:	5d                   	pop    %ebp
      e6:	c3                   	ret    

000000e7 <open_file>:
     memset(string, 0, length);
}

// Open given file.
int open_file(const char* file)
{
      e7:	55                   	push   %ebp
      e8:	89 e5                	mov    %esp,%ebp
      ea:	53                   	push   %ebx
      eb:	83 ec 0c             	sub    $0xc,%esp
      ee:	8b 5d 08             	mov    0x8(%ebp),%ebx
  int fd;

  if ((fd = open(file, O_RDWR)) < 1) {
      f1:	6a 02                	push   $0x2
      f3:	53                   	push   %ebx
      f4:	e8 bd b8 00 00       	call   b9b6 <open>
      f9:	83 c4 10             	add    $0x10,%esp
      fc:	85 c0                	test   %eax,%eax
      fe:	7f 28                	jg     128 <open_file+0x41>
    if (suppress == 0)
     100:	80 3d 44 42 01 00 00 	cmpb   $0x0,0x14244
     107:	75 1a                	jne    123 <open_file+0x3c>
      printf(1, "\nFailed to open file: %s\n", file);
     109:	83 ec 04             	sub    $0x4,%esp
     10c:	53                   	push   %ebx
     10d:	68 53 bf 00 00       	push   $0xbf53
     112:	6a 01                	push   $0x1
     114:	e8 4e ba 00 00       	call   bb67 <printf>
     119:	83 c4 10             	add    $0x10,%esp
    return 0;
     11c:	b8 00 00 00 00       	mov    $0x0,%eax
     121:	eb 05                	jmp    128 <open_file+0x41>
     123:	b8 00 00 00 00       	mov    $0x0,%eax
  }

  return fd;
}
     128:	8b 5d fc             	mov    -0x4(%ebp),%ebx
     12b:	c9                   	leave  
     12c:	c3                   	ret    

0000012d <close_file>:

// Close given file.
int close_file(int fd)
{
     12d:	55                   	push   %ebp
     12e:	89 e5                	mov    %esp,%ebp
     130:	83 ec 14             	sub    $0x14,%esp
  if (close(fd) != 0) {
     133:	ff 75 08             	pushl  0x8(%ebp)
     136:	e8 63 b8 00 00       	call   b99e <close>
     13b:	83 c4 10             	add    $0x10,%esp
     13e:	85 c0                	test   %eax,%eax
     140:	74 22                	je     164 <close_file+0x37>
    if (suppress == 0)
     142:	80 3d 44 42 01 00 00 	cmpb   $0x0,0x14244
     149:	75 20                	jne    16b <close_file+0x3e>
      printf(1, "\nFailed to close file\n");
     14b:	83 ec 08             	sub    $0x8,%esp
     14e:	68 6d bf 00 00       	push   $0xbf6d
     153:	6a 01                	push   $0x1
     155:	e8 0d ba 00 00       	call   bb67 <printf>
     15a:	83 c4 10             	add    $0x10,%esp
    return 0;
     15d:	b8 00 00 00 00       	mov    $0x0,%eax
     162:	eb 0c                	jmp    170 <close_file+0x43>
  }

  return 1;
     164:	b8 01 00 00 00       	mov    $0x1,%eax
     169:	eb 05                	jmp    170 <close_file+0x43>
int close_file(int fd)
{
  if (close(fd) != 0) {
    if (suppress == 0)
      printf(1, "\nFailed to close file\n");
    return 0;
     16b:	b8 00 00 00 00       	mov    $0x0,%eax
  }

  return 1;
}
     170:	c9                   	leave  
     171:	c3                   	ret    

00000172 <open_close_file>:

// Open and close given file.
int open_close_file(const char* file) {
     172:	55                   	push   %ebp
     173:	89 e5                	mov    %esp,%ebp
     175:	83 ec 14             	sub    $0x14,%esp
  int fd = open_file(file);
     178:	ff 75 08             	pushl  0x8(%ebp)
     17b:	e8 67 ff ff ff       	call   e7 <open_file>
  if (!fd) {
     180:	83 c4 10             	add    $0x10,%esp
     183:	85 c0                	test   %eax,%eax
     185:	74 0e                	je     195 <open_close_file+0x23>
    return 0;
  }
  return close_file(fd);
     187:	83 ec 0c             	sub    $0xc,%esp
     18a:	50                   	push   %eax
     18b:	e8 9d ff ff ff       	call   12d <close_file>
     190:	83 c4 10             	add    $0x10,%esp
     193:	eb 05                	jmp    19a <open_close_file+0x28>

// Open and close given file.
int open_close_file(const char* file) {
  int fd = open_file(file);
  if (!fd) {
    return 0;
     195:	b8 00 00 00 00       	mov    $0x0,%eax
  }
  return close_file(fd);
}
     19a:	c9                   	leave  
     19b:	c3                   	ret    

0000019c <read_file>:

// Read from a given file. if fails, return 0. Upon success returns the contents of the file.
// If print is set to 1, also prints the returned string.
char* read_file(const char* file, int print)
{
     19c:	55                   	push   %ebp
     19d:	89 e5                	mov    %esp,%ebp
     19f:	56                   	push   %esi
     1a0:	53                   	push   %ebx
     1a1:	8b 75 08             	mov    0x8(%ebp),%esi
  static char buf[256];
  empty_string(buf, 256);
     1a4:	ba 00 01 00 00       	mov    $0x100,%edx
     1a9:	b8 60 42 01 00       	mov    $0x14260,%eax
     1ae:	e8 4d fe ff ff       	call   0 <empty_string>

  int fd = open_file(file);
     1b3:	83 ec 0c             	sub    $0xc,%esp
     1b6:	56                   	push   %esi
     1b7:	e8 2b ff ff ff       	call   e7 <open_file>
  if (!fd) {
     1bc:	83 c4 10             	add    $0x10,%esp
     1bf:	85 c0                	test   %eax,%eax
     1c1:	74 78                	je     23b <read_file+0x9f>
     1c3:	89 c3                	mov    %eax,%ebx
    return 0;
  }
  if (read(fd, buf, 256) < 0) {
     1c5:	83 ec 04             	sub    $0x4,%esp
     1c8:	68 00 01 00 00       	push   $0x100
     1cd:	68 60 42 01 00       	push   $0x14260
     1d2:	50                   	push   %eax
     1d3:	e8 b6 b7 00 00       	call   b98e <read>
     1d8:	83 c4 10             	add    $0x10,%esp
     1db:	85 c0                	test   %eax,%eax
     1dd:	79 2f                	jns    20e <read_file+0x72>
    if (suppress == 0)
     1df:	80 3d 44 42 01 00 00 	cmpb   $0x0,0x14244
     1e6:	75 13                	jne    1fb <read_file+0x5f>
      printf(1, "\nFailed to read file: %s\n", file);
     1e8:	83 ec 04             	sub    $0x4,%esp
     1eb:	56                   	push   %esi
     1ec:	68 84 bf 00 00       	push   $0xbf84
     1f1:	6a 01                	push   $0x1
     1f3:	e8 6f b9 00 00       	call   bb67 <printf>
     1f8:	83 c4 10             	add    $0x10,%esp
    close_file(fd);
     1fb:	83 ec 0c             	sub    $0xc,%esp
     1fe:	53                   	push   %ebx
     1ff:	e8 29 ff ff ff       	call   12d <close_file>
    return 0;
     204:	83 c4 10             	add    $0x10,%esp
     207:	b8 00 00 00 00       	mov    $0x0,%eax
     20c:	eb 39                	jmp    247 <read_file+0xab>
  }

  if (print) {
     20e:	83 7d 0c 00          	cmpl   $0x0,0xc(%ebp)
     212:	74 15                	je     229 <read_file+0x8d>
    printf(1, "Contents of %s: \n%s\n", file, buf);
     214:	68 60 42 01 00       	push   $0x14260
     219:	56                   	push   %esi
     21a:	68 9e bf 00 00       	push   $0xbf9e
     21f:	6a 01                	push   $0x1
     221:	e8 41 b9 00 00       	call   bb67 <printf>
     226:	83 c4 10             	add    $0x10,%esp
  }

  if (!close_file(fd)) {
     229:	83 ec 0c             	sub    $0xc,%esp
     22c:	53                   	push   %ebx
     22d:	e8 fb fe ff ff       	call   12d <close_file>
     232:	83 c4 10             	add    $0x10,%esp
     235:	85 c0                	test   %eax,%eax
     237:	75 09                	jne    242 <read_file+0xa6>
     239:	eb 0c                	jmp    247 <read_file+0xab>
  static char buf[256];
  empty_string(buf, 256);

  int fd = open_file(file);
  if (!fd) {
    return 0;
     23b:	b8 00 00 00 00       	mov    $0x0,%eax
     240:	eb 05                	jmp    247 <read_file+0xab>

  if (!close_file(fd)) {
    return 0;
  }

  return buf;
     242:	b8 60 42 01 00       	mov    $0x14260,%eax
}
     247:	8d 65 f8             	lea    -0x8(%ebp),%esp
     24a:	5b                   	pop    %ebx
     24b:	5e                   	pop    %esi
     24c:	5d                   	pop    %ebp
     24d:	c3                   	ret    

0000024e <write_file>:

// Write into a file. If succesful returns 1, otherwise 0.
int write_file(const char* file, char* text) {
     24e:	55                   	push   %ebp
     24f:	89 e5                	mov    %esp,%ebp
     251:	57                   	push   %edi
     252:	56                   	push   %esi
     253:	53                   	push   %ebx
     254:	81 ec 18 01 00 00    	sub    $0x118,%esp
     25a:	8b 75 08             	mov    0x8(%ebp),%esi
  char buf[256];
  int fd = open_file(file);
     25d:	56                   	push   %esi
     25e:	e8 84 fe ff ff       	call   e7 <open_file>

  if(!fd)
     263:	83 c4 10             	add    $0x10,%esp
     266:	85 c0                	test   %eax,%eax
     268:	74 73                	je     2dd <write_file+0x8f>
     26a:	89 c3                	mov    %eax,%ebx
    return 0;
  empty_string(buf, 256);
     26c:	8d bd e8 fe ff ff    	lea    -0x118(%ebp),%edi
     272:	ba 00 01 00 00       	mov    $0x100,%edx
     277:	89 f8                	mov    %edi,%eax
     279:	e8 82 fd ff ff       	call   0 <empty_string>
  strcpy(buf, text);
     27e:	83 ec 08             	sub    $0x8,%esp
     281:	ff 75 0c             	pushl  0xc(%ebp)
     284:	57                   	push   %edi
     285:	e8 05 b4 00 00       	call   b68f <strcpy>
  if (write(fd, buf, sizeof(buf)) < 0) {
     28a:	83 c4 0c             	add    $0xc,%esp
     28d:	68 00 01 00 00       	push   $0x100
     292:	57                   	push   %edi
     293:	53                   	push   %ebx
     294:	e8 fd b6 00 00       	call   b996 <write>
     299:	83 c4 10             	add    $0x10,%esp
     29c:	85 c0                	test   %eax,%eax
     29e:	79 2f                	jns    2cf <write_file+0x81>
    if (suppress == 0)
     2a0:	80 3d 44 42 01 00 00 	cmpb   $0x0,0x14244
     2a7:	75 13                	jne    2bc <write_file+0x6e>
      printf(1, "\nFailed to write into file %s\n", file);
     2a9:	83 ec 04             	sub    $0x4,%esp
     2ac:	56                   	push   %esi
     2ad:	68 68 ca 00 00       	push   $0xca68
     2b2:	6a 01                	push   $0x1
     2b4:	e8 ae b8 00 00       	call   bb67 <printf>
     2b9:	83 c4 10             	add    $0x10,%esp
    close_file(fd);
     2bc:	83 ec 0c             	sub    $0xc,%esp
     2bf:	53                   	push   %ebx
     2c0:	e8 68 fe ff ff       	call   12d <close_file>
    return 0;
     2c5:	83 c4 10             	add    $0x10,%esp
     2c8:	b8 00 00 00 00       	mov    $0x0,%eax
     2cd:	eb 13                	jmp    2e2 <write_file+0x94>
  }

  return close_file(fd);
     2cf:	83 ec 0c             	sub    $0xc,%esp
     2d2:	53                   	push   %ebx
     2d3:	e8 55 fe ff ff       	call   12d <close_file>
     2d8:	83 c4 10             	add    $0x10,%esp
     2db:	eb 05                	jmp    2e2 <write_file+0x94>
int write_file(const char* file, char* text) {
  char buf[256];
  int fd = open_file(file);

  if(!fd)
    return 0;
     2dd:	b8 00 00 00 00       	mov    $0x0,%eax
    close_file(fd);
    return 0;
  }

  return close_file(fd);
}
     2e2:	8d 65 f4             	lea    -0xc(%ebp),%esp
     2e5:	5b                   	pop    %ebx
     2e6:	5e                   	pop    %esi
     2e7:	5f                   	pop    %edi
     2e8:	5d                   	pop    %ebp
     2e9:	c3                   	ret    

000002ea <write_new_file>:

int write_new_file(const char* file, char* text) {
     2ea:	55                   	push   %ebp
     2eb:	89 e5                	mov    %esp,%ebp
     2ed:	56                   	push   %esi
     2ee:	53                   	push   %ebx
     2ef:	8b 5d 08             	mov    0x8(%ebp),%ebx
   int fd;
   if ((fd = open(file, O_CREATE | O_RDWR)) < 1) {
     2f2:	83 ec 08             	sub    $0x8,%esp
     2f5:	68 02 02 00 00       	push   $0x202
     2fa:	53                   	push   %ebx
     2fb:	e8 b6 b6 00 00       	call   b9b6 <open>
     300:	83 c4 10             	add    $0x10,%esp
     303:	85 c0                	test   %eax,%eax
     305:	7f 22                	jg     329 <write_new_file+0x3f>
     if (suppress == 0)
     307:	80 3d 44 42 01 00 00 	cmpb   $0x0,0x14244
     30e:	75 3e                	jne    34e <write_new_file+0x64>
        printf(1, "\nFailed to open a new file \n");
     310:	83 ec 08             	sub    $0x8,%esp
     313:	68 b3 bf 00 00       	push   $0xbfb3
     318:	6a 01                	push   $0x1
     31a:	e8 48 b8 00 00       	call   bb67 <printf>
     31f:	83 c4 10             	add    $0x10,%esp
     return 0;
     322:	bb 00 00 00 00       	mov    $0x0,%ebx
     327:	eb 2e                	jmp    357 <write_new_file+0x6d>
     329:	89 c6                	mov    %eax,%esi
   }

   if (!write_file(file, text)) {
     32b:	83 ec 08             	sub    $0x8,%esp
     32e:	ff 75 0c             	pushl  0xc(%ebp)
     331:	53                   	push   %ebx
     332:	e8 17 ff ff ff       	call   24e <write_file>
     337:	89 c3                	mov    %eax,%ebx
     339:	83 c4 10             	add    $0x10,%esp
     33c:	85 c0                	test   %eax,%eax
     33e:	75 15                	jne    355 <write_new_file+0x6b>
     close_file(fd);
     340:	83 ec 0c             	sub    $0xc,%esp
     343:	56                   	push   %esi
     344:	e8 e4 fd ff ff       	call   12d <close_file>
     return 0;
     349:	83 c4 10             	add    $0x10,%esp
     34c:	eb 09                	jmp    357 <write_new_file+0x6d>
int write_new_file(const char* file, char* text) {
   int fd;
   if ((fd = open(file, O_CREATE | O_RDWR)) < 1) {
     if (suppress == 0)
        printf(1, "\nFailed to open a new file \n");
     return 0;
     34e:	bb 00 00 00 00       	mov    $0x0,%ebx
     353:	eb 02                	jmp    357 <write_new_file+0x6d>
   if (!write_file(file, text)) {
     close_file(fd);
     return 0;
   }

  return fd;
     355:	89 f3                	mov    %esi,%ebx
}
     357:	89 d8                	mov    %ebx,%eax
     359:	8d 65 f8             	lea    -0x8(%ebp),%esp
     35c:	5b                   	pop    %ebx
     35d:	5e                   	pop    %esi
     35e:	5d                   	pop    %ebp
     35f:	c3                   	ret    

00000360 <enable_controller>:

// Test enabling controller according to given type.
int enable_controller(int type) {
     360:	55                   	push   %ebp
     361:	89 e5                	mov    %esp,%ebp
     363:	53                   	push   %ebx
     364:	83 ec 14             	sub    $0x14,%esp
     367:	8b 5d 08             	mov    0x8(%ebp),%ebx
  char buf[5] = { '+', 0 };
     36a:	c7 45 f3 00 00 00 00 	movl   $0x0,-0xd(%ebp)
     371:	c6 45 f7 00          	movb   $0x0,-0x9(%ebp)
     375:	c6 45 f3 2b          	movb   $0x2b,-0xd(%ebp)
  if (!is_valid_controller_type(type)) {
     379:	53                   	push   %ebx
     37a:	e8 23 fd ff ff       	call   a2 <is_valid_controller_type>
     37f:	83 c4 04             	add    $0x4,%esp
     382:	85 c0                	test   %eax,%eax
     384:	74 2a                	je     3b0 <enable_controller+0x50>
    return 0;
  }

  strcpy(buf + 1, controller_names[type]);
     386:	c1 e3 04             	shl    $0x4,%ebx
     389:	81 c3 00 40 01 00    	add    $0x14000,%ebx
     38f:	83 ec 08             	sub    $0x8,%esp
     392:	53                   	push   %ebx
     393:	8d 5d f3             	lea    -0xd(%ebp),%ebx
     396:	8d 45 f4             	lea    -0xc(%ebp),%eax
     399:	50                   	push   %eax
     39a:	e8 f0 b2 00 00       	call   b68f <strcpy>

  return write_file(TEST_1_CGROUP_SUBTREE_CONTROL, buf);
     39f:	83 c4 08             	add    $0x8,%esp
     3a2:	53                   	push   %ebx
     3a3:	68 88 ca 00 00       	push   $0xca88
     3a8:	e8 a1 fe ff ff       	call   24e <write_file>
     3ad:	83 c4 10             	add    $0x10,%esp
}
     3b0:	8b 5d fc             	mov    -0x4(%ebp),%ebx
     3b3:	c9                   	leave  
     3b4:	c3                   	ret    

000003b5 <disable_controller>:

// Test disabling controller according to given type.
int disable_controller(int type) {
     3b5:	55                   	push   %ebp
     3b6:	89 e5                	mov    %esp,%ebp
     3b8:	53                   	push   %ebx
     3b9:	83 ec 14             	sub    $0x14,%esp
     3bc:	8b 5d 08             	mov    0x8(%ebp),%ebx
  char buf[5] = { '-', 0 };
     3bf:	c7 45 f3 00 00 00 00 	movl   $0x0,-0xd(%ebp)
     3c6:	c6 45 f7 00          	movb   $0x0,-0x9(%ebp)
     3ca:	c6 45 f3 2d          	movb   $0x2d,-0xd(%ebp)
  if (!is_valid_controller_type(type)) {
     3ce:	53                   	push   %ebx
     3cf:	e8 ce fc ff ff       	call   a2 <is_valid_controller_type>
     3d4:	83 c4 04             	add    $0x4,%esp
     3d7:	85 c0                	test   %eax,%eax
     3d9:	74 2a                	je     405 <disable_controller+0x50>
    return 0;
  }

  strcpy(buf + 1, controller_names[type]);
     3db:	c1 e3 04             	shl    $0x4,%ebx
     3de:	81 c3 00 40 01 00    	add    $0x14000,%ebx
     3e4:	83 ec 08             	sub    $0x8,%esp
     3e7:	53                   	push   %ebx
     3e8:	8d 5d f3             	lea    -0xd(%ebp),%ebx
     3eb:	8d 45 f4             	lea    -0xc(%ebp),%eax
     3ee:	50                   	push   %eax
     3ef:	e8 9b b2 00 00       	call   b68f <strcpy>

  return write_file(TEST_1_CGROUP_SUBTREE_CONTROL, buf);
     3f4:	83 c4 08             	add    $0x8,%esp
     3f7:	53                   	push   %ebx
     3f8:	68 88 ca 00 00       	push   $0xca88
     3fd:	e8 4c fe ff ff       	call   24e <write_file>
     402:	83 c4 10             	add    $0x10,%esp
}
     405:	8b 5d fc             	mov    -0x4(%ebp),%ebx
     408:	c9                   	leave  
     409:	c3                   	ret    

0000040a <verify_controller_enabled>:

// Test verrifying a controller is active according to given type.
int verify_controller_enabled(int type) {
     40a:	55                   	push   %ebp
     40b:	89 e5                	mov    %esp,%ebp
     40d:	53                   	push   %ebx
     40e:	83 ec 14             	sub    $0x14,%esp
     411:	8b 5d 08             	mov    0x8(%ebp),%ebx
  char buf[4] = { 0 };
     414:	c7 45 f4 00 00 00 00 	movl   $0x0,-0xc(%ebp)
  if (!is_valid_controller_type(type)) {
     41b:	53                   	push   %ebx
     41c:	e8 81 fc ff ff       	call   a2 <is_valid_controller_type>
     421:	83 c4 04             	add    $0x4,%esp
     424:	85 c0                	test   %eax,%eax
     426:	74 6d                	je     495 <verify_controller_enabled+0x8b>
    return 0;
  }

  strcpy(buf, controller_names[type]);
     428:	c1 e3 04             	shl    $0x4,%ebx
     42b:	81 c3 00 40 01 00    	add    $0x14000,%ebx
     431:	83 ec 08             	sub    $0x8,%esp
     434:	53                   	push   %ebx
     435:	8d 45 f4             	lea    -0xc(%ebp),%eax
     438:	50                   	push   %eax
     439:	e8 51 b2 00 00       	call   b68f <strcpy>

  char* contents = read_file(TEST_1_CGROUP_SUBTREE_CONTROL, 0);
     43e:	83 c4 08             	add    $0x8,%esp
     441:	6a 00                	push   $0x0
     443:	68 88 ca 00 00       	push   $0xca88
     448:	e8 4f fd ff ff       	call   19c <read_file>

  int i;
  for (i = 0; contents[i] != 0 && i < sizeof(contents) - 2; i++) {
     44d:	83 c4 10             	add    $0x10,%esp
     450:	ba 00 00 00 00       	mov    $0x0,%edx
     455:	eb 1c                	jmp    473 <verify_controller_enabled+0x69>
    if (contents[i] == buf[0] && contents[i + 1] == buf[1] && contents[i + 2] == buf[2]) {
     457:	3a 4d f4             	cmp    -0xc(%ebp),%cl
     45a:	75 14                	jne    470 <verify_controller_enabled+0x66>
     45c:	0f b6 4d f5          	movzbl -0xb(%ebp),%ecx
     460:	38 4c 18 01          	cmp    %cl,0x1(%eax,%ebx,1)
     464:	75 0a                	jne    470 <verify_controller_enabled+0x66>
     466:	0f b6 4d f6          	movzbl -0xa(%ebp),%ecx
     46a:	38 4c 18 02          	cmp    %cl,0x2(%eax,%ebx,1)
     46e:	74 19                	je     489 <verify_controller_enabled+0x7f>
  strcpy(buf, controller_names[type]);

  char* contents = read_file(TEST_1_CGROUP_SUBTREE_CONTROL, 0);

  int i;
  for (i = 0; contents[i] != 0 && i < sizeof(contents) - 2; i++) {
     470:	83 c2 01             	add    $0x1,%edx
     473:	89 d3                	mov    %edx,%ebx
     475:	0f b6 0c 10          	movzbl (%eax,%edx,1),%ecx
     479:	84 c9                	test   %cl,%cl
     47b:	74 13                	je     490 <verify_controller_enabled+0x86>
     47d:	83 fa 01             	cmp    $0x1,%edx
     480:	76 d5                	jbe    457 <verify_controller_enabled+0x4d>
    if (contents[i] == buf[0] && contents[i + 1] == buf[1] && contents[i + 2] == buf[2]) {
      return 1;
    }
  }

  return 0;
     482:	b8 00 00 00 00       	mov    $0x0,%eax
     487:	eb 0c                	jmp    495 <verify_controller_enabled+0x8b>
  char* contents = read_file(TEST_1_CGROUP_SUBTREE_CONTROL, 0);

  int i;
  for (i = 0; contents[i] != 0 && i < sizeof(contents) - 2; i++) {
    if (contents[i] == buf[0] && contents[i + 1] == buf[1] && contents[i + 2] == buf[2]) {
      return 1;
     489:	b8 01 00 00 00       	mov    $0x1,%eax
     48e:	eb 05                	jmp    495 <verify_controller_enabled+0x8b>
    }
  }

  return 0;
     490:	b8 00 00 00 00       	mov    $0x0,%eax
}
     495:	8b 5d fc             	mov    -0x4(%ebp),%ebx
     498:	c9                   	leave  
     499:	c3                   	ret    

0000049a <verify_controller_disabled>:

// Test verifying a controller is disabled according to given type.
int verify_controller_disabled(int type) {
     49a:	55                   	push   %ebp
     49b:	89 e5                	mov    %esp,%ebp
     49d:	56                   	push   %esi
     49e:	53                   	push   %ebx
     49f:	83 ec 10             	sub    $0x10,%esp
     4a2:	8b 5d 08             	mov    0x8(%ebp),%ebx
  char buf[4] = { 0 };
     4a5:	c7 45 f4 00 00 00 00 	movl   $0x0,-0xc(%ebp)
  if (!is_valid_controller_type(type)) {
     4ac:	53                   	push   %ebx
     4ad:	e8 f0 fb ff ff       	call   a2 <is_valid_controller_type>
     4b2:	83 c4 04             	add    $0x4,%esp
     4b5:	85 c0                	test   %eax,%eax
     4b7:	74 77                	je     530 <verify_controller_disabled+0x96>
    return 0;
  }

  strcpy(buf, controller_names[type]);
     4b9:	c1 e3 04             	shl    $0x4,%ebx
     4bc:	81 c3 00 40 01 00    	add    $0x14000,%ebx
     4c2:	83 ec 08             	sub    $0x8,%esp
     4c5:	53                   	push   %ebx
     4c6:	8d 45 f4             	lea    -0xc(%ebp),%eax
     4c9:	50                   	push   %eax
     4ca:	e8 c0 b1 00 00       	call   b68f <strcpy>

  char* contents = read_file(TEST_1_CGROUP_SUBTREE_CONTROL, 0);
     4cf:	83 c4 08             	add    $0x8,%esp
     4d2:	6a 00                	push   $0x0
     4d4:	68 88 ca 00 00       	push   $0xca88
     4d9:	e8 be fc ff ff       	call   19c <read_file>
  int i;

  for (i = 0; contents[i + 2] != 0; i++) {
     4de:	83 c4 10             	add    $0x10,%esp
     4e1:	ba 00 00 00 00       	mov    $0x0,%edx
     4e6:	eb 38                	jmp    520 <verify_controller_disabled+0x86>
    if (contents[i] == buf[0] && contents[i + 1] == buf[1] && contents[i + 2] == buf[2]) {
     4e8:	0f b6 5d f4          	movzbl -0xc(%ebp),%ebx
     4ec:	38 1c 10             	cmp    %bl,(%eax,%edx,1)
     4ef:	75 2c                	jne    51d <verify_controller_disabled+0x83>
     4f1:	0f b6 5d f5          	movzbl -0xb(%ebp),%ebx
     4f5:	38 5c 30 01          	cmp    %bl,0x1(%eax,%esi,1)
     4f9:	75 22                	jne    51d <verify_controller_disabled+0x83>
     4fb:	3a 4d f6             	cmp    -0xa(%ebp),%cl
     4fe:	75 1d                	jne    51d <verify_controller_disabled+0x83>
      printf(1, "\nController %s is still enabled\n", buf);
     500:	83 ec 04             	sub    $0x4,%esp
     503:	8d 45 f4             	lea    -0xc(%ebp),%eax
     506:	50                   	push   %eax
     507:	68 b0 ca 00 00       	push   $0xcab0
     50c:	6a 01                	push   $0x1
     50e:	e8 54 b6 00 00       	call   bb67 <printf>
      return 0;
     513:	83 c4 10             	add    $0x10,%esp
     516:	b8 00 00 00 00       	mov    $0x0,%eax
     51b:	eb 13                	jmp    530 <verify_controller_disabled+0x96>
  strcpy(buf, controller_names[type]);

  char* contents = read_file(TEST_1_CGROUP_SUBTREE_CONTROL, 0);
  int i;

  for (i = 0; contents[i + 2] != 0; i++) {
     51d:	83 c2 01             	add    $0x1,%edx
     520:	89 d6                	mov    %edx,%esi
     522:	0f b6 4c 10 02       	movzbl 0x2(%eax,%edx,1),%ecx
     527:	84 c9                	test   %cl,%cl
     529:	75 bd                	jne    4e8 <verify_controller_disabled+0x4e>
      printf(1, "\nController %s is still enabled\n", buf);
      return 0;
    }
  }

  return 1;
     52b:	b8 01 00 00 00       	mov    $0x1,%eax
}
     530:	8d 65 f8             	lea    -0x8(%ebp),%esp
     533:	5b                   	pop    %ebx
     534:	5e                   	pop    %esi
     535:	5d                   	pop    %ebp
     536:	c3                   	ret    

00000537 <move_proc>:

// Test moving a process to given cgroup.
int move_proc(const char* file, int pid) {
     537:	55                   	push   %ebp
     538:	89 e5                	mov    %esp,%ebp
     53a:	53                   	push   %ebx
     53b:	83 ec 14             	sub    $0x14,%esp
  char pid_buf[3];
  empty_string(pid_buf, 3);
     53e:	8d 5d f5             	lea    -0xb(%ebp),%ebx
     541:	ba 03 00 00 00       	mov    $0x3,%edx
     546:	89 d8                	mov    %ebx,%eax
     548:	e8 b3 fa ff ff       	call   0 <empty_string>
  itoa(pid_buf, pid);
     54d:	83 ec 08             	sub    $0x8,%esp
     550:	ff 75 0c             	pushl  0xc(%ebp)
     553:	53                   	push   %ebx
     554:	e8 f1 b2 00 00       	call   b84a <itoa>
  return write_file(file, pid_buf);
     559:	83 c4 08             	add    $0x8,%esp
     55c:	53                   	push   %ebx
     55d:	ff 75 08             	pushl  0x8(%ebp)
     560:	e8 e9 fc ff ff       	call   24e <write_file>
}
     565:	8b 5d fc             	mov    -0x4(%ebp),%ebx
     568:	c9                   	leave  
     569:	c3                   	ret    

0000056a <is_pid_in_group>:

// Test a given pid in string format belongs to a given cgroup.
int is_pid_in_group(const char* file, int pid) {
     56a:	55                   	push   %ebp
     56b:	89 e5                	mov    %esp,%ebp
     56d:	57                   	push   %edi
     56e:	56                   	push   %esi
     56f:	53                   	push   %ebx
     570:	83 ec 24             	sub    $0x24,%esp
     573:	8b 75 08             	mov    0x8(%ebp),%esi
  char* contents = read_file(file, 0);
     576:	6a 00                	push   $0x0
     578:	56                   	push   %esi
     579:	e8 1e fc ff ff       	call   19c <read_file>
     57e:	89 c3                	mov    %eax,%ebx
  char pid_buf[3];

  empty_string(pid_buf, 3);
     580:	8d 7d e5             	lea    -0x1b(%ebp),%edi
     583:	ba 03 00 00 00       	mov    $0x3,%edx
     588:	89 f8                	mov    %edi,%eax
     58a:	e8 71 fa ff ff       	call   0 <empty_string>
  itoa(pid_buf, pid);
     58f:	83 c4 08             	add    $0x8,%esp
     592:	ff 75 0c             	pushl  0xc(%ebp)
     595:	57                   	push   %edi
     596:	e8 af b2 00 00       	call   b84a <itoa>

  if (pid_buf[1] == 0)
     59b:	83 c4 10             	add    $0x10,%esp
     59e:	80 7d e6 00          	cmpb   $0x0,-0x1a(%ebp)
     5a2:	75 04                	jne    5a8 <is_pid_in_group+0x3e>
    pid_buf[1] = '\n';
     5a4:	c6 45 e6 0a          	movb   $0xa,-0x1a(%ebp)

  int i;
  for (i = 0; contents[i + 1] != 0; i++) {
     5a8:	b8 00 00 00 00       	mov    $0x0,%eax
     5ad:	eb 11                	jmp    5c0 <is_pid_in_group+0x56>
    if (pid_buf[0] == contents[i] && pid_buf[1] == contents[i + 1]) {
     5af:	0f b6 0c 03          	movzbl (%ebx,%eax,1),%ecx
     5b3:	38 4d e5             	cmp    %cl,-0x1b(%ebp)
     5b6:	75 05                	jne    5bd <is_pid_in_group+0x53>
     5b8:	3a 55 e6             	cmp    -0x1a(%ebp),%dl
     5bb:	74 39                	je     5f6 <is_pid_in_group+0x8c>

  if (pid_buf[1] == 0)
    pid_buf[1] = '\n';

  int i;
  for (i = 0; contents[i + 1] != 0; i++) {
     5bd:	83 c0 01             	add    $0x1,%eax
     5c0:	0f b6 54 03 01       	movzbl 0x1(%ebx,%eax,1),%edx
     5c5:	84 d2                	test   %dl,%dl
     5c7:	75 e6                	jne    5af <is_pid_in_group+0x45>
    if (pid_buf[0] == contents[i] && pid_buf[1] == contents[i + 1]) {
      return 1;
    }
  }

  if (suppress == 0) {
     5c9:	80 3d 44 42 01 00 00 	cmpb   $0x0,0x14244
     5d0:	75 2b                	jne    5fd <is_pid_in_group+0x93>
    printf(1, "Failed to find pid %d in group %s\n", atoi(pid_buf), file);
     5d2:	83 ec 0c             	sub    $0xc,%esp
     5d5:	8d 45 e5             	lea    -0x1b(%ebp),%eax
     5d8:	50                   	push   %eax
     5d9:	e8 16 b2 00 00       	call   b7f4 <atoi>
     5de:	56                   	push   %esi
     5df:	50                   	push   %eax
     5e0:	68 d4 ca 00 00       	push   $0xcad4
     5e5:	6a 01                	push   $0x1
     5e7:	e8 7b b5 00 00       	call   bb67 <printf>
     5ec:	83 c4 20             	add    $0x20,%esp
  }

  return 0;
     5ef:	b8 00 00 00 00       	mov    $0x0,%eax
     5f4:	eb 0c                	jmp    602 <is_pid_in_group+0x98>
    pid_buf[1] = '\n';

  int i;
  for (i = 0; contents[i + 1] != 0; i++) {
    if (pid_buf[0] == contents[i] && pid_buf[1] == contents[i + 1]) {
      return 1;
     5f6:	b8 01 00 00 00       	mov    $0x1,%eax
     5fb:	eb 05                	jmp    602 <is_pid_in_group+0x98>

  if (suppress == 0) {
    printf(1, "Failed to find pid %d in group %s\n", atoi(pid_buf), file);
  }

  return 0;
     5fd:	b8 00 00 00 00       	mov    $0x0,%eax
}
     602:	8d 65 f4             	lea    -0xc(%ebp),%esp
     605:	5b                   	pop    %ebx
     606:	5e                   	pop    %esi
     607:	5f                   	pop    %edi
     608:	5d                   	pop    %ebp
     609:	c3                   	ret    

0000060a <temp_write>:

// Write an integer into a temporary file. Notice only one such file currently supported.
int temp_write(int num) {
     60a:	55                   	push   %ebp
     60b:	89 e5                	mov    %esp,%ebp
     60d:	56                   	push   %esi
     60e:	53                   	push   %ebx
     60f:	81 ec 08 01 00 00    	sub    $0x108,%esp
  int fd;
  if ((fd = open(TEMP_FILE, O_CREATE | O_RDWR)) < 1) {
     615:	68 02 02 00 00       	push   $0x202
     61a:	68 d0 bf 00 00       	push   $0xbfd0
     61f:	e8 92 b3 00 00       	call   b9b6 <open>
     624:	83 c4 10             	add    $0x10,%esp
     627:	85 c0                	test   %eax,%eax
     629:	7f 22                	jg     64d <temp_write+0x43>
    if (suppress == 0)
     62b:	80 3d 44 42 01 00 00 	cmpb   $0x0,0x14244
     632:	75 62                	jne    696 <temp_write+0x8c>
      printf(1, "\nFailed to open a temporary file\n");
     634:	83 ec 08             	sub    $0x8,%esp
     637:	68 f8 ca 00 00       	push   $0xcaf8
     63c:	6a 01                	push   $0x1
     63e:	e8 24 b5 00 00       	call   bb67 <printf>
     643:	83 c4 10             	add    $0x10,%esp
    return 0;
     646:	bb 00 00 00 00       	mov    $0x0,%ebx
     64b:	eb 4e                	jmp    69b <temp_write+0x91>
     64d:	89 c6                	mov    %eax,%esi
  }

  char buf[256];
  itoa(buf, num);
     64f:	83 ec 08             	sub    $0x8,%esp
     652:	ff 75 08             	pushl  0x8(%ebp)
     655:	8d 9d f8 fe ff ff    	lea    -0x108(%ebp),%ebx
     65b:	53                   	push   %ebx
     65c:	e8 e9 b1 00 00       	call   b84a <itoa>

  if (!write_file(TEMP_FILE, buf)) {
     661:	83 c4 08             	add    $0x8,%esp
     664:	53                   	push   %ebx
     665:	68 d0 bf 00 00       	push   $0xbfd0
     66a:	e8 df fb ff ff       	call   24e <write_file>
     66f:	89 c3                	mov    %eax,%ebx
     671:	83 c4 10             	add    $0x10,%esp
     674:	85 c0                	test   %eax,%eax
     676:	75 0e                	jne    686 <temp_write+0x7c>
    close_file(fd);
     678:	83 ec 0c             	sub    $0xc,%esp
     67b:	56                   	push   %esi
     67c:	e8 ac fa ff ff       	call   12d <close_file>
    return 0;
     681:	83 c4 10             	add    $0x10,%esp
     684:	eb 15                	jmp    69b <temp_write+0x91>
  }

  return close_file(fd);
     686:	83 ec 0c             	sub    $0xc,%esp
     689:	56                   	push   %esi
     68a:	e8 9e fa ff ff       	call   12d <close_file>
     68f:	89 c3                	mov    %eax,%ebx
     691:	83 c4 10             	add    $0x10,%esp
     694:	eb 05                	jmp    69b <temp_write+0x91>
int temp_write(int num) {
  int fd;
  if ((fd = open(TEMP_FILE, O_CREATE | O_RDWR)) < 1) {
    if (suppress == 0)
      printf(1, "\nFailed to open a temporary file\n");
    return 0;
     696:	bb 00 00 00 00       	mov    $0x0,%ebx
    close_file(fd);
    return 0;
  }

  return close_file(fd);
}
     69b:	89 d8                	mov    %ebx,%eax
     69d:	8d 65 f8             	lea    -0x8(%ebp),%esp
     6a0:	5b                   	pop    %ebx
     6a1:	5e                   	pop    %esi
     6a2:	5d                   	pop    %ebp
     6a3:	c3                   	ret    

000006a4 <temp_read>:

// Read an integer from the temporary file.
int temp_read(int print) {
     6a4:	55                   	push   %ebp
     6a5:	89 e5                	mov    %esp,%ebp
     6a7:	83 ec 10             	sub    $0x10,%esp
  return atoi(read_file(TEMP_FILE, print));
     6aa:	ff 75 08             	pushl  0x8(%ebp)
     6ad:	68 d0 bf 00 00       	push   $0xbfd0
     6b2:	e8 e5 fa ff ff       	call   19c <read_file>
     6b7:	89 04 24             	mov    %eax,(%esp)
     6ba:	e8 35 b1 00 00       	call   b7f4 <atoi>
}
     6bf:	c9                   	leave  
     6c0:	c3                   	ret    

000006c1 <temp_delete>:

// Delete the temporary file.
int temp_delete() {
     6c1:	55                   	push   %ebp
     6c2:	89 e5                	mov    %esp,%ebp
     6c4:	83 ec 14             	sub    $0x14,%esp
  if (unlink(TEMP_FILE)) {
     6c7:	68 d0 bf 00 00       	push   $0xbfd0
     6cc:	e8 f5 b2 00 00       	call   b9c6 <unlink>
     6d1:	83 c4 10             	add    $0x10,%esp
     6d4:	85 c0                	test   %eax,%eax
     6d6:	74 19                	je     6f1 <temp_delete+0x30>
    printf(1, "Failed to delete temporary file\n");
     6d8:	83 ec 08             	sub    $0x8,%esp
     6db:	68 1c cb 00 00       	push   $0xcb1c
     6e0:	6a 01                	push   $0x1
     6e2:	e8 80 b4 00 00       	call   bb67 <printf>
    return 0;
     6e7:	83 c4 10             	add    $0x10,%esp
     6ea:	b8 00 00 00 00       	mov    $0x0,%eax
     6ef:	eb 05                	jmp    6f6 <temp_delete+0x35>
  }

  return 1;
     6f1:	b8 01 00 00 00       	mov    $0x1,%eax
}
     6f6:	c9                   	leave  
     6f7:	c3                   	ret    

000006f8 <get_val>:

//return the value for a given entry from the bufer
//entry must contain all characters before the value include white-space
int get_val(char *buf, char *entry){
     6f8:	55                   	push   %ebp
     6f9:	89 e5                	mov    %esp,%ebp
     6fb:	56                   	push   %esi
     6fc:	53                   	push   %ebx
     6fd:	8b 5d 08             	mov    0x8(%ebp),%ebx
     700:	8b 75 0c             	mov    0xc(%ebp),%esi
     703:	eb 02                	jmp    707 <get_val+0xf>
     if(strncmp(buf, entry, strlen(entry))==0){
       buf+=strlen(entry);
       return atoi(buf);
       }
     else
       while (*buf++!='\n')//go to next line
     705:	89 c3                	mov    %eax,%ebx
//return the value for a given entry from the bufer
//entry must contain all characters before the value include white-space
int get_val(char *buf, char *entry){

  do{
     if(strncmp(buf, entry, strlen(entry))==0){
     707:	83 ec 0c             	sub    $0xc,%esp
     70a:	56                   	push   %esi
     70b:	e8 f3 af 00 00       	call   b703 <strlen>
     710:	83 c4 0c             	add    $0xc,%esp
     713:	50                   	push   %eax
     714:	56                   	push   %esi
     715:	53                   	push   %ebx
     716:	e8 b8 af 00 00       	call   b6d3 <strncmp>
     71b:	83 c4 10             	add    $0x10,%esp
     71e:	85 c0                	test   %eax,%eax
     720:	75 1a                	jne    73c <get_val+0x44>
       buf+=strlen(entry);
     722:	83 ec 0c             	sub    $0xc,%esp
     725:	56                   	push   %esi
     726:	e8 d8 af 00 00       	call   b703 <strlen>
     72b:	01 c3                	add    %eax,%ebx
       return atoi(buf);
     72d:	89 1c 24             	mov    %ebx,(%esp)
     730:	e8 bf b0 00 00       	call   b7f4 <atoi>
     735:	83 c4 10             	add    $0x10,%esp
     738:	eb 15                	jmp    74f <get_val+0x57>
       }
     else
       while (*buf++!='\n')//go to next line
     73a:	89 c3                	mov    %eax,%ebx
     73c:	8d 43 01             	lea    0x1(%ebx),%eax
     73f:	80 3b 0a             	cmpb   $0xa,(%ebx)
     742:	75 f6                	jne    73a <get_val+0x42>
            ;
      }while(*buf!='\0');
     744:	80 7b 01 00          	cmpb   $0x0,0x1(%ebx)
     748:	75 bb                	jne    705 <get_val+0xd>
  return -1;//Assuming all values are supposed to be non-negative
     74a:	b8 ff ff ff ff       	mov    $0xffffffff,%eax
}
     74f:	8d 65 f8             	lea    -0x8(%ebp),%esp
     752:	5b                   	pop    %ebx
     753:	5e                   	pop    %esi
     754:	5d                   	pop    %ebp
     755:	c3                   	ret    

00000756 <build_activate_disable_activate>:

// Write into buffer the sequence of activating, disabling then activating a given controller.
// Returns the buffer written.
char* build_activate_disable_activate(int controller_type)
{
     756:	55                   	push   %ebp
     757:	89 e5                	mov    %esp,%ebp
     759:	56                   	push   %esi
     75a:	53                   	push   %ebx
     75b:	8b 75 08             	mov    0x8(%ebp),%esi
  if (!is_valid_controller_type(controller_type)) {
     75e:	56                   	push   %esi
     75f:	e8 3e f9 ff ff       	call   a2 <is_valid_controller_type>
     764:	83 c4 04             	add    $0x4,%esp
     767:	85 c0                	test   %eax,%eax
     769:	0f 84 8e 00 00 00    	je     7fd <build_activate_disable_activate+0xa7>
    return 0;
  }

  int max_size = (MAX_CONTROLLER_NAME_LENGTH + 2) * 3;
  char* buf = malloc(max_size);
     76f:	83 ec 0c             	sub    $0xc,%esp
     772:	6a 36                	push   $0x36
     774:	e8 05 b6 00 00       	call   bd7e <malloc>
     779:	89 c3                	mov    %eax,%ebx
  memset(buf, 0, max_size);
     77b:	83 c4 0c             	add    $0xc,%esp
     77e:	6a 36                	push   $0x36
     780:	6a 00                	push   $0x0
     782:	50                   	push   %eax
     783:	e8 95 af 00 00       	call   b71d <memset>

  // "+controller "
  strcat(buf, "+");
     788:	83 c4 08             	add    $0x8,%esp
     78b:	68 da bf 00 00       	push   $0xbfda
     790:	53                   	push   %ebx
     791:	e8 40 b1 00 00       	call   b8d6 <strcat>
  strcat(buf, get_controller_name(controller_type));
     796:	89 34 24             	mov    %esi,(%esp)
     799:	e8 13 f9 ff ff       	call   b1 <get_controller_name>
     79e:	83 c4 08             	add    $0x8,%esp
     7a1:	89 c6                	mov    %eax,%esi
     7a3:	50                   	push   %eax
     7a4:	53                   	push   %ebx
     7a5:	e8 2c b1 00 00       	call   b8d6 <strcat>
  strcat(buf, " ");
     7aa:	83 c4 08             	add    $0x8,%esp
     7ad:	68 b0 c6 00 00       	push   $0xc6b0
     7b2:	53                   	push   %ebx
     7b3:	e8 1e b1 00 00       	call   b8d6 <strcat>

  // "-controller "
  strcat(buf, "-");
     7b8:	83 c4 08             	add    $0x8,%esp
     7bb:	68 dc bf 00 00       	push   $0xbfdc
     7c0:	53                   	push   %ebx
     7c1:	e8 10 b1 00 00       	call   b8d6 <strcat>
  strcat(buf, get_controller_name(controller_type));
     7c6:	83 c4 08             	add    $0x8,%esp
     7c9:	56                   	push   %esi
     7ca:	53                   	push   %ebx
     7cb:	e8 06 b1 00 00       	call   b8d6 <strcat>
  strcat(buf, " ");
     7d0:	83 c4 08             	add    $0x8,%esp
     7d3:	68 b0 c6 00 00       	push   $0xc6b0
     7d8:	53                   	push   %ebx
     7d9:	e8 f8 b0 00 00       	call   b8d6 <strcat>

  // "+controller"
  strcat(buf, "+");
     7de:	83 c4 08             	add    $0x8,%esp
     7e1:	68 da bf 00 00       	push   $0xbfda
     7e6:	53                   	push   %ebx
     7e7:	e8 ea b0 00 00       	call   b8d6 <strcat>
  strcat(buf, get_controller_name(controller_type));
     7ec:	83 c4 08             	add    $0x8,%esp
     7ef:	56                   	push   %esi
     7f0:	53                   	push   %ebx
     7f1:	e8 e0 b0 00 00       	call   b8d6 <strcat>

  return buf;
     7f6:	83 c4 10             	add    $0x10,%esp
     7f9:	89 d8                	mov    %ebx,%eax
     7fb:	eb 05                	jmp    802 <build_activate_disable_activate+0xac>
// Write into buffer the sequence of activating, disabling then activating a given controller.
// Returns the buffer written.
char* build_activate_disable_activate(int controller_type)
{
  if (!is_valid_controller_type(controller_type)) {
    return 0;
     7fd:	b8 00 00 00 00       	mov    $0x0,%eax
  // "+controller"
  strcat(buf, "+");
  strcat(buf, get_controller_name(controller_type));

  return buf;
}
     802:	8d 65 f8             	lea    -0x8(%ebp),%esp
     805:	5b                   	pop    %ebx
     806:	5e                   	pop    %esi
     807:	5d                   	pop    %ebp
     808:	c3                   	ret    

00000809 <build_activate_disable>:

// Write into buffer the sequence of activating then disabling a given controller.
// Returns the buffer written.
char* build_activate_disable(int controller_type)
{
     809:	55                   	push   %ebp
     80a:	89 e5                	mov    %esp,%ebp
     80c:	56                   	push   %esi
     80d:	53                   	push   %ebx
     80e:	8b 75 08             	mov    0x8(%ebp),%esi
  if (!is_valid_controller_type(controller_type)) {
     811:	56                   	push   %esi
     812:	e8 8b f8 ff ff       	call   a2 <is_valid_controller_type>
     817:	83 c4 04             	add    $0x4,%esp
     81a:	85 c0                	test   %eax,%eax
     81c:	74 68                	je     886 <build_activate_disable+0x7d>
    return 0;
  }

  int max_size = (MAX_CONTROLLER_NAME_LENGTH + 2) * 2;
  char* buf = malloc(max_size);
     81e:	83 ec 0c             	sub    $0xc,%esp
     821:	6a 24                	push   $0x24
     823:	e8 56 b5 00 00       	call   bd7e <malloc>
     828:	89 c3                	mov    %eax,%ebx
  memset(buf, 0, max_size);
     82a:	83 c4 0c             	add    $0xc,%esp
     82d:	6a 24                	push   $0x24
     82f:	6a 00                	push   $0x0
     831:	50                   	push   %eax
     832:	e8 e6 ae 00 00       	call   b71d <memset>

  // "+controller "
  strcat(buf, "+");
     837:	83 c4 08             	add    $0x8,%esp
     83a:	68 da bf 00 00       	push   $0xbfda
     83f:	53                   	push   %ebx
     840:	e8 91 b0 00 00       	call   b8d6 <strcat>
  strcat(buf, get_controller_name(controller_type));
     845:	89 34 24             	mov    %esi,(%esp)
     848:	e8 64 f8 ff ff       	call   b1 <get_controller_name>
     84d:	83 c4 08             	add    $0x8,%esp
     850:	89 c6                	mov    %eax,%esi
     852:	50                   	push   %eax
     853:	53                   	push   %ebx
     854:	e8 7d b0 00 00       	call   b8d6 <strcat>
  strcat(buf, " ");
     859:	83 c4 08             	add    $0x8,%esp
     85c:	68 b0 c6 00 00       	push   $0xc6b0
     861:	53                   	push   %ebx
     862:	e8 6f b0 00 00       	call   b8d6 <strcat>

  // "-controller"
  strcat(buf, "-");
     867:	83 c4 08             	add    $0x8,%esp
     86a:	68 dc bf 00 00       	push   $0xbfdc
     86f:	53                   	push   %ebx
     870:	e8 61 b0 00 00       	call   b8d6 <strcat>
  strcat(buf, get_controller_name(controller_type));
     875:	83 c4 08             	add    $0x8,%esp
     878:	56                   	push   %esi
     879:	53                   	push   %ebx
     87a:	e8 57 b0 00 00       	call   b8d6 <strcat>

  return buf;
     87f:	83 c4 10             	add    $0x10,%esp
     882:	89 d8                	mov    %ebx,%eax
     884:	eb 05                	jmp    88b <build_activate_disable+0x82>
// Write into buffer the sequence of activating then disabling a given controller.
// Returns the buffer written.
char* build_activate_disable(int controller_type)
{
  if (!is_valid_controller_type(controller_type)) {
    return 0;
     886:	b8 00 00 00 00       	mov    $0x0,%eax
  // "-controller"
  strcat(buf, "-");
  strcat(buf, get_controller_name(controller_type));

  return buf;
}
     88b:	8d 65 f8             	lea    -0x8(%ebp),%esp
     88e:	5b                   	pop    %ebx
     88f:	5e                   	pop    %esi
     890:	5d                   	pop    %ebp
     891:	c3                   	ret    

00000892 <test_mount_cgroup_fs>:

TEST(test_mount_cgroup_fs)
{
     892:	55                   	push   %ebp
     893:	89 e5                	mov    %esp,%ebp
     895:	56                   	push   %esi
     896:	53                   	push   %ebx
    ASSERT_FALSE(mkdir(ROOT_CGROUP));
     897:	83 ec 0c             	sub    $0xc,%esp
     89a:	68 de bf 00 00       	push   $0xbfde
     89f:	e8 3a b1 00 00       	call   b9de <mkdir>
     8a4:	83 c4 10             	add    $0x10,%esp
     8a7:	85 c0                	test   %eax,%eax
     8a9:	75 19                	jne    8c4 <test_mount_cgroup_fs+0x32>
     8ab:	eb 70                	jmp    91d <test_mount_cgroup_fs+0x8b>
     8ad:	83 ec 08             	sub    $0x8,%esp
     8b0:	68 3c bf 00 00       	push   $0xbf3c
     8b5:	6a 01                	push   $0x1
     8b7:	e8 ab b2 00 00       	call   bb67 <printf>
     8bc:	83 c3 01             	add    $0x1,%ebx
     8bf:	83 c4 10             	add    $0x10,%esp
     8c2:	eb 05                	jmp    8c9 <test_mount_cgroup_fs+0x37>
     8c4:	bb 00 00 00 00       	mov    $0x0,%ebx
     8c9:	83 ec 0c             	sub    $0xc,%esp
     8cc:	68 e6 bf 00 00       	push   $0xbfe6
     8d1:	e8 2d ae 00 00       	call   b703 <strlen>
     8d6:	89 c6                	mov    %eax,%esi
     8d8:	c7 04 24 3e bf 00 00 	movl   $0xbf3e,(%esp)
     8df:	e8 1f ae 00 00       	call   b703 <strlen>
     8e4:	8d 44 06 02          	lea    0x2(%esi,%eax,1),%eax
     8e8:	83 c4 10             	add    $0x10,%esp
     8eb:	39 d8                	cmp    %ebx,%eax
     8ed:	77 be                	ja     8ad <test_mount_cgroup_fs+0x1b>
     8ef:	83 ec 0c             	sub    $0xc,%esp
     8f2:	68 6a 01 00 00       	push   $0x16a
     8f7:	68 f9 bf 00 00       	push   $0xbff9
     8fc:	ff 75 08             	pushl  0x8(%ebp)
     8ff:	68 40 cb 00 00       	push   $0xcb40
     904:	6a 01                	push   $0x1
     906:	e8 5c b2 00 00       	call   bb67 <printf>
     90b:	c7 05 40 42 01 00 01 	movl   $0x1,0x14240
     912:	00 00 00 
     915:	83 c4 20             	add    $0x20,%esp
     918:	e9 88 00 00 00       	jmp    9a5 <test_mount_cgroup_fs+0x113>
    ASSERT_FALSE(mount(0, ROOT_CGROUP, CGROUP));
     91d:	83 ec 04             	sub    $0x4,%esp
     920:	68 df bf 00 00       	push   $0xbfdf
     925:	68 de bf 00 00       	push   $0xbfde
     92a:	6a 00                	push   $0x0
     92c:	e8 e5 b0 00 00       	call   ba16 <mount>
     931:	83 c4 10             	add    $0x10,%esp
     934:	85 c0                	test   %eax,%eax
     936:	75 19                	jne    951 <test_mount_cgroup_fs+0xbf>
     938:	eb 6b                	jmp    9a5 <test_mount_cgroup_fs+0x113>
     93a:	83 ec 08             	sub    $0x8,%esp
     93d:	68 3c bf 00 00       	push   $0xbf3c
     942:	6a 01                	push   $0x1
     944:	e8 1e b2 00 00       	call   bb67 <printf>
     949:	83 c3 01             	add    $0x1,%ebx
     94c:	83 c4 10             	add    $0x10,%esp
     94f:	eb 05                	jmp    956 <test_mount_cgroup_fs+0xc4>
     951:	bb 00 00 00 00       	mov    $0x0,%ebx
     956:	83 ec 0c             	sub    $0xc,%esp
     959:	68 08 c0 00 00       	push   $0xc008
     95e:	e8 a0 ad 00 00       	call   b703 <strlen>
     963:	89 c6                	mov    %eax,%esi
     965:	c7 04 24 3e bf 00 00 	movl   $0xbf3e,(%esp)
     96c:	e8 92 ad 00 00       	call   b703 <strlen>
     971:	8d 44 06 02          	lea    0x2(%esi,%eax,1),%eax
     975:	83 c4 10             	add    $0x10,%esp
     978:	39 d8                	cmp    %ebx,%eax
     97a:	77 be                	ja     93a <test_mount_cgroup_fs+0xa8>
     97c:	83 ec 0c             	sub    $0xc,%esp
     97f:	68 6b 01 00 00       	push   $0x16b
     984:	68 f9 bf 00 00       	push   $0xbff9
     989:	ff 75 08             	pushl  0x8(%ebp)
     98c:	68 7c cb 00 00       	push   $0xcb7c
     991:	6a 01                	push   $0x1
     993:	e8 cf b1 00 00       	call   bb67 <printf>
     998:	c7 05 40 42 01 00 01 	movl   $0x1,0x14240
     99f:	00 00 00 
     9a2:	83 c4 20             	add    $0x20,%esp
}
     9a5:	8d 65 f8             	lea    -0x8(%ebp),%esp
     9a8:	5b                   	pop    %ebx
     9a9:	5e                   	pop    %esi
     9aa:	5d                   	pop    %ebp
     9ab:	c3                   	ret    

000009ac <test_umount_cgroup_fs>:

TEST(test_umount_cgroup_fs)
{
     9ac:	55                   	push   %ebp
     9ad:	89 e5                	mov    %esp,%ebp
     9af:	56                   	push   %esi
     9b0:	53                   	push   %ebx
    ASSERT_FALSE(umount(ROOT_CGROUP));
     9b1:	83 ec 0c             	sub    $0xc,%esp
     9b4:	68 de bf 00 00       	push   $0xbfde
     9b9:	e8 60 b0 00 00       	call   ba1e <umount>
     9be:	83 c4 10             	add    $0x10,%esp
     9c1:	85 c0                	test   %eax,%eax
     9c3:	75 19                	jne    9de <test_umount_cgroup_fs+0x32>
     9c5:	eb 70                	jmp    a37 <test_umount_cgroup_fs+0x8b>
     9c7:	83 ec 08             	sub    $0x8,%esp
     9ca:	68 3c bf 00 00       	push   $0xbf3c
     9cf:	6a 01                	push   $0x1
     9d1:	e8 91 b1 00 00       	call   bb67 <printf>
     9d6:	83 c3 01             	add    $0x1,%ebx
     9d9:	83 c4 10             	add    $0x10,%esp
     9dc:	eb 05                	jmp    9e3 <test_umount_cgroup_fs+0x37>
     9de:	bb 00 00 00 00       	mov    $0x0,%ebx
     9e3:	83 ec 0c             	sub    $0xc,%esp
     9e6:	68 26 c0 00 00       	push   $0xc026
     9eb:	e8 13 ad 00 00       	call   b703 <strlen>
     9f0:	89 c6                	mov    %eax,%esi
     9f2:	c7 04 24 3e bf 00 00 	movl   $0xbf3e,(%esp)
     9f9:	e8 05 ad 00 00       	call   b703 <strlen>
     9fe:	8d 44 06 02          	lea    0x2(%esi,%eax,1),%eax
     a02:	83 c4 10             	add    $0x10,%esp
     a05:	39 d8                	cmp    %ebx,%eax
     a07:	77 be                	ja     9c7 <test_umount_cgroup_fs+0x1b>
     a09:	83 ec 0c             	sub    $0xc,%esp
     a0c:	68 70 01 00 00       	push   $0x170
     a11:	68 f9 bf 00 00       	push   $0xbff9
     a16:	ff 75 08             	pushl  0x8(%ebp)
     a19:	68 c4 cb 00 00       	push   $0xcbc4
     a1e:	6a 01                	push   $0x1
     a20:	e8 42 b1 00 00       	call   bb67 <printf>
     a25:	c7 05 40 42 01 00 01 	movl   $0x1,0x14240
     a2c:	00 00 00 
     a2f:	83 c4 20             	add    $0x20,%esp
     a32:	e9 81 00 00 00       	jmp    ab8 <test_umount_cgroup_fs+0x10c>
    ASSERT_FALSE(unlink(ROOT_CGROUP));
     a37:	83 ec 0c             	sub    $0xc,%esp
     a3a:	68 de bf 00 00       	push   $0xbfde
     a3f:	e8 82 af 00 00       	call   b9c6 <unlink>
     a44:	83 c4 10             	add    $0x10,%esp
     a47:	85 c0                	test   %eax,%eax
     a49:	75 19                	jne    a64 <test_umount_cgroup_fs+0xb8>
     a4b:	eb 6b                	jmp    ab8 <test_umount_cgroup_fs+0x10c>
     a4d:	83 ec 08             	sub    $0x8,%esp
     a50:	68 3c bf 00 00       	push   $0xbf3c
     a55:	6a 01                	push   $0x1
     a57:	e8 0b b1 00 00       	call   bb67 <printf>
     a5c:	83 c3 01             	add    $0x1,%ebx
     a5f:	83 c4 10             	add    $0x10,%esp
     a62:	eb 05                	jmp    a69 <test_umount_cgroup_fs+0xbd>
     a64:	bb 00 00 00 00       	mov    $0x0,%ebx
     a69:	83 ec 0c             	sub    $0xc,%esp
     a6c:	68 3a c0 00 00       	push   $0xc03a
     a71:	e8 8d ac 00 00       	call   b703 <strlen>
     a76:	89 c6                	mov    %eax,%esi
     a78:	c7 04 24 3e bf 00 00 	movl   $0xbf3e,(%esp)
     a7f:	e8 7f ac 00 00       	call   b703 <strlen>
     a84:	8d 44 06 02          	lea    0x2(%esi,%eax,1),%eax
     a88:	83 c4 10             	add    $0x10,%esp
     a8b:	39 d8                	cmp    %ebx,%eax
     a8d:	77 be                	ja     a4d <test_umount_cgroup_fs+0xa1>
     a8f:	83 ec 0c             	sub    $0xc,%esp
     a92:	68 71 01 00 00       	push   $0x171
     a97:	68 f9 bf 00 00       	push   $0xbff9
     a9c:	ff 75 08             	pushl  0x8(%ebp)
     a9f:	68 04 cc 00 00       	push   $0xcc04
     aa4:	6a 01                	push   $0x1
     aa6:	e8 bc b0 00 00       	call   bb67 <printf>
     aab:	c7 05 40 42 01 00 01 	movl   $0x1,0x14240
     ab2:	00 00 00 
     ab5:	83 c4 20             	add    $0x20,%esp
}
     ab8:	8d 65 f8             	lea    -0x8(%ebp),%esp
     abb:	5b                   	pop    %ebx
     abc:	5e                   	pop    %esi
     abd:	5d                   	pop    %ebp
     abe:	c3                   	ret    

00000abf <test_creating_cgroups>:

TEST(test_creating_cgroups)
{
     abf:	55                   	push   %ebp
     ac0:	89 e5                	mov    %esp,%ebp
     ac2:	56                   	push   %esi
     ac3:	53                   	push   %ebx
    ASSERT_FALSE(mkdir(TEST_1));
     ac4:	83 ec 0c             	sub    $0xc,%esp
     ac7:	68 4e c0 00 00       	push   $0xc04e
     acc:	e8 0d af 00 00       	call   b9de <mkdir>
     ad1:	83 c4 10             	add    $0x10,%esp
     ad4:	85 c0                	test   %eax,%eax
     ad6:	75 19                	jne    af1 <test_creating_cgroups+0x32>
     ad8:	eb 70                	jmp    b4a <test_creating_cgroups+0x8b>
     ada:	83 ec 08             	sub    $0x8,%esp
     add:	68 3c bf 00 00       	push   $0xbf3c
     ae2:	6a 01                	push   $0x1
     ae4:	e8 7e b0 00 00       	call   bb67 <printf>
     ae9:	83 c3 01             	add    $0x1,%ebx
     aec:	83 c4 10             	add    $0x10,%esp
     aef:	eb 05                	jmp    af6 <test_creating_cgroups+0x37>
     af1:	bb 00 00 00 00       	mov    $0x0,%ebx
     af6:	83 ec 0c             	sub    $0xc,%esp
     af9:	68 5c c0 00 00       	push   $0xc05c
     afe:	e8 00 ac 00 00       	call   b703 <strlen>
     b03:	89 c6                	mov    %eax,%esi
     b05:	c7 04 24 3e bf 00 00 	movl   $0xbf3e,(%esp)
     b0c:	e8 f2 ab 00 00       	call   b703 <strlen>
     b11:	8d 44 06 02          	lea    0x2(%esi,%eax,1),%eax
     b15:	83 c4 10             	add    $0x10,%esp
     b18:	39 d8                	cmp    %ebx,%eax
     b1a:	77 be                	ja     ada <test_creating_cgroups+0x1b>
     b1c:	83 ec 0c             	sub    $0xc,%esp
     b1f:	68 76 01 00 00       	push   $0x176
     b24:	68 f9 bf 00 00       	push   $0xbff9
     b29:	ff 75 08             	pushl  0x8(%ebp)
     b2c:	68 44 cc 00 00       	push   $0xcc44
     b31:	6a 01                	push   $0x1
     b33:	e8 2f b0 00 00       	call   bb67 <printf>
     b38:	c7 05 40 42 01 00 01 	movl   $0x1,0x14240
     b3f:	00 00 00 
     b42:	83 c4 20             	add    $0x20,%esp
     b45:	e9 8d 01 00 00       	jmp    cd7 <test_creating_cgroups+0x218>
    ASSERT_FALSE(mkdir(TEST_2));
     b4a:	83 ec 0c             	sub    $0xc,%esp
     b4d:	68 6a c0 00 00       	push   $0xc06a
     b52:	e8 87 ae 00 00       	call   b9de <mkdir>
     b57:	83 c4 10             	add    $0x10,%esp
     b5a:	85 c0                	test   %eax,%eax
     b5c:	75 19                	jne    b77 <test_creating_cgroups+0xb8>
     b5e:	eb 70                	jmp    bd0 <test_creating_cgroups+0x111>
     b60:	83 ec 08             	sub    $0x8,%esp
     b63:	68 3c bf 00 00       	push   $0xbf3c
     b68:	6a 01                	push   $0x1
     b6a:	e8 f8 af 00 00       	call   bb67 <printf>
     b6f:	83 c3 01             	add    $0x1,%ebx
     b72:	83 c4 10             	add    $0x10,%esp
     b75:	eb 05                	jmp    b7c <test_creating_cgroups+0xbd>
     b77:	bb 00 00 00 00       	mov    $0x0,%ebx
     b7c:	83 ec 0c             	sub    $0xc,%esp
     b7f:	68 78 c0 00 00       	push   $0xc078
     b84:	e8 7a ab 00 00       	call   b703 <strlen>
     b89:	89 c6                	mov    %eax,%esi
     b8b:	c7 04 24 3e bf 00 00 	movl   $0xbf3e,(%esp)
     b92:	e8 6c ab 00 00       	call   b703 <strlen>
     b97:	8d 44 06 02          	lea    0x2(%esi,%eax,1),%eax
     b9b:	83 c4 10             	add    $0x10,%esp
     b9e:	39 d8                	cmp    %ebx,%eax
     ba0:	77 be                	ja     b60 <test_creating_cgroups+0xa1>
     ba2:	83 ec 0c             	sub    $0xc,%esp
     ba5:	68 77 01 00 00       	push   $0x177
     baa:	68 f9 bf 00 00       	push   $0xbff9
     baf:	ff 75 08             	pushl  0x8(%ebp)
     bb2:	68 7c cc 00 00       	push   $0xcc7c
     bb7:	6a 01                	push   $0x1
     bb9:	e8 a9 af 00 00       	call   bb67 <printf>
     bbe:	c7 05 40 42 01 00 01 	movl   $0x1,0x14240
     bc5:	00 00 00 
     bc8:	83 c4 20             	add    $0x20,%esp
     bcb:	e9 07 01 00 00       	jmp    cd7 <test_creating_cgroups+0x218>
    ASSERT_FALSE(mkdir(TEST_1_1));
     bd0:	83 ec 0c             	sub    $0xc,%esp
     bd3:	68 86 c0 00 00       	push   $0xc086
     bd8:	e8 01 ae 00 00       	call   b9de <mkdir>
     bdd:	83 c4 10             	add    $0x10,%esp
     be0:	85 c0                	test   %eax,%eax
     be2:	75 19                	jne    bfd <test_creating_cgroups+0x13e>
     be4:	eb 70                	jmp    c56 <test_creating_cgroups+0x197>
     be6:	83 ec 08             	sub    $0x8,%esp
     be9:	68 3c bf 00 00       	push   $0xbf3c
     bee:	6a 01                	push   $0x1
     bf0:	e8 72 af 00 00       	call   bb67 <printf>
     bf5:	83 c3 01             	add    $0x1,%ebx
     bf8:	83 c4 10             	add    $0x10,%esp
     bfb:	eb 05                	jmp    c02 <test_creating_cgroups+0x143>
     bfd:	bb 00 00 00 00       	mov    $0x0,%ebx
     c02:	83 ec 0c             	sub    $0xc,%esp
     c05:	68 96 c0 00 00       	push   $0xc096
     c0a:	e8 f4 aa 00 00       	call   b703 <strlen>
     c0f:	89 c6                	mov    %eax,%esi
     c11:	c7 04 24 3e bf 00 00 	movl   $0xbf3e,(%esp)
     c18:	e8 e6 aa 00 00       	call   b703 <strlen>
     c1d:	8d 44 06 02          	lea    0x2(%esi,%eax,1),%eax
     c21:	83 c4 10             	add    $0x10,%esp
     c24:	39 d8                	cmp    %ebx,%eax
     c26:	77 be                	ja     be6 <test_creating_cgroups+0x127>
     c28:	83 ec 0c             	sub    $0xc,%esp
     c2b:	68 78 01 00 00       	push   $0x178
     c30:	68 f9 bf 00 00       	push   $0xbff9
     c35:	ff 75 08             	pushl  0x8(%ebp)
     c38:	68 b4 cc 00 00       	push   $0xccb4
     c3d:	6a 01                	push   $0x1
     c3f:	e8 23 af 00 00       	call   bb67 <printf>
     c44:	c7 05 40 42 01 00 01 	movl   $0x1,0x14240
     c4b:	00 00 00 
     c4e:	83 c4 20             	add    $0x20,%esp
     c51:	e9 81 00 00 00       	jmp    cd7 <test_creating_cgroups+0x218>
    ASSERT_FALSE(mkdir(TEST_1_2));
     c56:	83 ec 0c             	sub    $0xc,%esp
     c59:	68 a6 c0 00 00       	push   $0xc0a6
     c5e:	e8 7b ad 00 00       	call   b9de <mkdir>
     c63:	83 c4 10             	add    $0x10,%esp
     c66:	85 c0                	test   %eax,%eax
     c68:	75 19                	jne    c83 <test_creating_cgroups+0x1c4>
     c6a:	eb 6b                	jmp    cd7 <test_creating_cgroups+0x218>
     c6c:	83 ec 08             	sub    $0x8,%esp
     c6f:	68 3c bf 00 00       	push   $0xbf3c
     c74:	6a 01                	push   $0x1
     c76:	e8 ec ae 00 00       	call   bb67 <printf>
     c7b:	83 c3 01             	add    $0x1,%ebx
     c7e:	83 c4 10             	add    $0x10,%esp
     c81:	eb 05                	jmp    c88 <test_creating_cgroups+0x1c9>
     c83:	bb 00 00 00 00       	mov    $0x0,%ebx
     c88:	83 ec 0c             	sub    $0xc,%esp
     c8b:	68 b6 c0 00 00       	push   $0xc0b6
     c90:	e8 6e aa 00 00       	call   b703 <strlen>
     c95:	89 c6                	mov    %eax,%esi
     c97:	c7 04 24 3e bf 00 00 	movl   $0xbf3e,(%esp)
     c9e:	e8 60 aa 00 00       	call   b703 <strlen>
     ca3:	8d 44 06 02          	lea    0x2(%esi,%eax,1),%eax
     ca7:	83 c4 10             	add    $0x10,%esp
     caa:	39 d8                	cmp    %ebx,%eax
     cac:	77 be                	ja     c6c <test_creating_cgroups+0x1ad>
     cae:	83 ec 0c             	sub    $0xc,%esp
     cb1:	68 79 01 00 00       	push   $0x179
     cb6:	68 f9 bf 00 00       	push   $0xbff9
     cbb:	ff 75 08             	pushl  0x8(%ebp)
     cbe:	68 f0 cc 00 00       	push   $0xccf0
     cc3:	6a 01                	push   $0x1
     cc5:	e8 9d ae 00 00       	call   bb67 <printf>
     cca:	c7 05 40 42 01 00 01 	movl   $0x1,0x14240
     cd1:	00 00 00 
     cd4:	83 c4 20             	add    $0x20,%esp
}
     cd7:	8d 65 f8             	lea    -0x8(%ebp),%esp
     cda:	5b                   	pop    %ebx
     cdb:	5e                   	pop    %esi
     cdc:	5d                   	pop    %ebp
     cdd:	c3                   	ret    

00000cde <test_deleting_cgroups>:

TEST(test_deleting_cgroups)
{
     cde:	55                   	push   %ebp
     cdf:	89 e5                	mov    %esp,%ebp
     ce1:	56                   	push   %esi
     ce2:	53                   	push   %ebx
    ASSERT_FALSE(unlink(TEST_1_2));
     ce3:	83 ec 0c             	sub    $0xc,%esp
     ce6:	68 a6 c0 00 00       	push   $0xc0a6
     ceb:	e8 d6 ac 00 00       	call   b9c6 <unlink>
     cf0:	83 c4 10             	add    $0x10,%esp
     cf3:	85 c0                	test   %eax,%eax
     cf5:	75 19                	jne    d10 <test_deleting_cgroups+0x32>
     cf7:	eb 70                	jmp    d69 <test_deleting_cgroups+0x8b>
     cf9:	83 ec 08             	sub    $0x8,%esp
     cfc:	68 3c bf 00 00       	push   $0xbf3c
     d01:	6a 01                	push   $0x1
     d03:	e8 5f ae 00 00       	call   bb67 <printf>
     d08:	83 c3 01             	add    $0x1,%ebx
     d0b:	83 c4 10             	add    $0x10,%esp
     d0e:	eb 05                	jmp    d15 <test_deleting_cgroups+0x37>
     d10:	bb 00 00 00 00       	mov    $0x0,%ebx
     d15:	83 ec 0c             	sub    $0xc,%esp
     d18:	68 c6 c0 00 00       	push   $0xc0c6
     d1d:	e8 e1 a9 00 00       	call   b703 <strlen>
     d22:	89 c6                	mov    %eax,%esi
     d24:	c7 04 24 3e bf 00 00 	movl   $0xbf3e,(%esp)
     d2b:	e8 d3 a9 00 00       	call   b703 <strlen>
     d30:	8d 44 06 02          	lea    0x2(%esi,%eax,1),%eax
     d34:	83 c4 10             	add    $0x10,%esp
     d37:	39 d8                	cmp    %ebx,%eax
     d39:	77 be                	ja     cf9 <test_deleting_cgroups+0x1b>
     d3b:	83 ec 0c             	sub    $0xc,%esp
     d3e:	68 7e 01 00 00       	push   $0x17e
     d43:	68 f9 bf 00 00       	push   $0xbff9
     d48:	ff 75 08             	pushl  0x8(%ebp)
     d4b:	68 2c cd 00 00       	push   $0xcd2c
     d50:	6a 01                	push   $0x1
     d52:	e8 10 ae 00 00       	call   bb67 <printf>
     d57:	c7 05 40 42 01 00 01 	movl   $0x1,0x14240
     d5e:	00 00 00 
     d61:	83 c4 20             	add    $0x20,%esp
     d64:	e9 8d 01 00 00       	jmp    ef6 <test_deleting_cgroups+0x218>
    ASSERT_FALSE(unlink(TEST_1_1));
     d69:	83 ec 0c             	sub    $0xc,%esp
     d6c:	68 86 c0 00 00       	push   $0xc086
     d71:	e8 50 ac 00 00       	call   b9c6 <unlink>
     d76:	83 c4 10             	add    $0x10,%esp
     d79:	85 c0                	test   %eax,%eax
     d7b:	75 19                	jne    d96 <test_deleting_cgroups+0xb8>
     d7d:	eb 70                	jmp    def <test_deleting_cgroups+0x111>
     d7f:	83 ec 08             	sub    $0x8,%esp
     d82:	68 3c bf 00 00       	push   $0xbf3c
     d87:	6a 01                	push   $0x1
     d89:	e8 d9 ad 00 00       	call   bb67 <printf>
     d8e:	83 c3 01             	add    $0x1,%ebx
     d91:	83 c4 10             	add    $0x10,%esp
     d94:	eb 05                	jmp    d9b <test_deleting_cgroups+0xbd>
     d96:	bb 00 00 00 00       	mov    $0x0,%ebx
     d9b:	83 ec 0c             	sub    $0xc,%esp
     d9e:	68 d7 c0 00 00       	push   $0xc0d7
     da3:	e8 5b a9 00 00       	call   b703 <strlen>
     da8:	89 c6                	mov    %eax,%esi
     daa:	c7 04 24 3e bf 00 00 	movl   $0xbf3e,(%esp)
     db1:	e8 4d a9 00 00       	call   b703 <strlen>
     db6:	8d 44 06 02          	lea    0x2(%esi,%eax,1),%eax
     dba:	83 c4 10             	add    $0x10,%esp
     dbd:	39 d8                	cmp    %ebx,%eax
     dbf:	77 be                	ja     d7f <test_deleting_cgroups+0xa1>
     dc1:	83 ec 0c             	sub    $0xc,%esp
     dc4:	68 7f 01 00 00       	push   $0x17f
     dc9:	68 f9 bf 00 00       	push   $0xbff9
     dce:	ff 75 08             	pushl  0x8(%ebp)
     dd1:	68 68 cd 00 00       	push   $0xcd68
     dd6:	6a 01                	push   $0x1
     dd8:	e8 8a ad 00 00       	call   bb67 <printf>
     ddd:	c7 05 40 42 01 00 01 	movl   $0x1,0x14240
     de4:	00 00 00 
     de7:	83 c4 20             	add    $0x20,%esp
     dea:	e9 07 01 00 00       	jmp    ef6 <test_deleting_cgroups+0x218>
    ASSERT_FALSE(unlink(TEST_2));
     def:	83 ec 0c             	sub    $0xc,%esp
     df2:	68 6a c0 00 00       	push   $0xc06a
     df7:	e8 ca ab 00 00       	call   b9c6 <unlink>
     dfc:	83 c4 10             	add    $0x10,%esp
     dff:	85 c0                	test   %eax,%eax
     e01:	75 19                	jne    e1c <test_deleting_cgroups+0x13e>
     e03:	eb 70                	jmp    e75 <test_deleting_cgroups+0x197>
     e05:	83 ec 08             	sub    $0x8,%esp
     e08:	68 3c bf 00 00       	push   $0xbf3c
     e0d:	6a 01                	push   $0x1
     e0f:	e8 53 ad 00 00       	call   bb67 <printf>
     e14:	83 c3 01             	add    $0x1,%ebx
     e17:	83 c4 10             	add    $0x10,%esp
     e1a:	eb 05                	jmp    e21 <test_deleting_cgroups+0x143>
     e1c:	bb 00 00 00 00       	mov    $0x0,%ebx
     e21:	83 ec 0c             	sub    $0xc,%esp
     e24:	68 e8 c0 00 00       	push   $0xc0e8
     e29:	e8 d5 a8 00 00       	call   b703 <strlen>
     e2e:	89 c6                	mov    %eax,%esi
     e30:	c7 04 24 3e bf 00 00 	movl   $0xbf3e,(%esp)
     e37:	e8 c7 a8 00 00       	call   b703 <strlen>
     e3c:	8d 44 06 02          	lea    0x2(%esi,%eax,1),%eax
     e40:	83 c4 10             	add    $0x10,%esp
     e43:	39 d8                	cmp    %ebx,%eax
     e45:	77 be                	ja     e05 <test_deleting_cgroups+0x127>
     e47:	83 ec 0c             	sub    $0xc,%esp
     e4a:	68 80 01 00 00       	push   $0x180
     e4f:	68 f9 bf 00 00       	push   $0xbff9
     e54:	ff 75 08             	pushl  0x8(%ebp)
     e57:	68 a4 cd 00 00       	push   $0xcda4
     e5c:	6a 01                	push   $0x1
     e5e:	e8 04 ad 00 00       	call   bb67 <printf>
     e63:	c7 05 40 42 01 00 01 	movl   $0x1,0x14240
     e6a:	00 00 00 
     e6d:	83 c4 20             	add    $0x20,%esp
     e70:	e9 81 00 00 00       	jmp    ef6 <test_deleting_cgroups+0x218>
    ASSERT_FALSE(unlink(TEST_1));
     e75:	83 ec 0c             	sub    $0xc,%esp
     e78:	68 4e c0 00 00       	push   $0xc04e
     e7d:	e8 44 ab 00 00       	call   b9c6 <unlink>
     e82:	83 c4 10             	add    $0x10,%esp
     e85:	85 c0                	test   %eax,%eax
     e87:	75 19                	jne    ea2 <test_deleting_cgroups+0x1c4>
     e89:	eb 6b                	jmp    ef6 <test_deleting_cgroups+0x218>
     e8b:	83 ec 08             	sub    $0x8,%esp
     e8e:	68 3c bf 00 00       	push   $0xbf3c
     e93:	6a 01                	push   $0x1
     e95:	e8 cd ac 00 00       	call   bb67 <printf>
     e9a:	83 c3 01             	add    $0x1,%ebx
     e9d:	83 c4 10             	add    $0x10,%esp
     ea0:	eb 05                	jmp    ea7 <test_deleting_cgroups+0x1c9>
     ea2:	bb 00 00 00 00       	mov    $0x0,%ebx
     ea7:	83 ec 0c             	sub    $0xc,%esp
     eaa:	68 f7 c0 00 00       	push   $0xc0f7
     eaf:	e8 4f a8 00 00       	call   b703 <strlen>
     eb4:	89 c6                	mov    %eax,%esi
     eb6:	c7 04 24 3e bf 00 00 	movl   $0xbf3e,(%esp)
     ebd:	e8 41 a8 00 00       	call   b703 <strlen>
     ec2:	8d 44 06 02          	lea    0x2(%esi,%eax,1),%eax
     ec6:	83 c4 10             	add    $0x10,%esp
     ec9:	39 d8                	cmp    %ebx,%eax
     ecb:	77 be                	ja     e8b <test_deleting_cgroups+0x1ad>
     ecd:	83 ec 0c             	sub    $0xc,%esp
     ed0:	68 81 01 00 00       	push   $0x181
     ed5:	68 f9 bf 00 00       	push   $0xbff9
     eda:	ff 75 08             	pushl  0x8(%ebp)
     edd:	68 dc cd 00 00       	push   $0xcddc
     ee2:	6a 01                	push   $0x1
     ee4:	e8 7e ac 00 00       	call   bb67 <printf>
     ee9:	c7 05 40 42 01 00 01 	movl   $0x1,0x14240
     ef0:	00 00 00 
     ef3:	83 c4 20             	add    $0x20,%esp
}
     ef6:	8d 65 f8             	lea    -0x8(%ebp),%esp
     ef9:	5b                   	pop    %ebx
     efa:	5e                   	pop    %esi
     efb:	5d                   	pop    %ebp
     efc:	c3                   	ret    

00000efd <test_opening_and_closing_cgroup_files>:

TEST(test_opening_and_closing_cgroup_files)
{
     efd:	55                   	push   %ebp
     efe:	89 e5                	mov    %esp,%ebp
     f00:	57                   	push   %edi
     f01:	56                   	push   %esi
     f02:	53                   	push   %ebx
     f03:	83 ec 18             	sub    $0x18,%esp
     f06:	8b 75 08             	mov    0x8(%ebp),%esi
    ASSERT_TRUE(open_close_file(TEST_1_CGROUP_PROCS));
     f09:	68 06 c1 00 00       	push   $0xc106
     f0e:	e8 5f f2 ff ff       	call   172 <open_close_file>
     f13:	83 c4 10             	add    $0x10,%esp
     f16:	85 c0                	test   %eax,%eax
     f18:	74 19                	je     f33 <test_opening_and_closing_cgroup_files+0x36>
     f1a:	eb 6e                	jmp    f8a <test_opening_and_closing_cgroup_files+0x8d>
     f1c:	83 ec 08             	sub    $0x8,%esp
     f1f:	68 3c bf 00 00       	push   $0xbf3c
     f24:	6a 01                	push   $0x1
     f26:	e8 3c ac 00 00       	call   bb67 <printf>
     f2b:	83 c3 01             	add    $0x1,%ebx
     f2e:	83 c4 10             	add    $0x10,%esp
     f31:	eb 05                	jmp    f38 <test_opening_and_closing_cgroup_files+0x3b>
     f33:	bb 00 00 00 00       	mov    $0x0,%ebx
     f38:	83 ec 0c             	sub    $0xc,%esp
     f3b:	68 14 ce 00 00       	push   $0xce14
     f40:	e8 be a7 00 00       	call   b703 <strlen>
     f45:	89 c7                	mov    %eax,%edi
     f47:	c7 04 24 3e bf 00 00 	movl   $0xbf3e,(%esp)
     f4e:	e8 b0 a7 00 00       	call   b703 <strlen>
     f53:	8d 44 07 02          	lea    0x2(%edi,%eax,1),%eax
     f57:	83 c4 10             	add    $0x10,%esp
     f5a:	39 d8                	cmp    %ebx,%eax
     f5c:	77 be                	ja     f1c <test_opening_and_closing_cgroup_files+0x1f>
     f5e:	83 ec 0c             	sub    $0xc,%esp
     f61:	68 86 01 00 00       	push   $0x186
     f66:	68 f9 bf 00 00       	push   $0xbff9
     f6b:	56                   	push   %esi
     f6c:	68 3c ce 00 00       	push   $0xce3c
     f71:	6a 01                	push   $0x1
     f73:	e8 ef ab 00 00       	call   bb67 <printf>
     f78:	c7 05 40 42 01 00 01 	movl   $0x1,0x14240
     f7f:	00 00 00 
     f82:	83 c4 20             	add    $0x20,%esp
     f85:	e9 bc 08 00 00       	jmp    1846 <test_opening_and_closing_cgroup_files+0x949>
    ASSERT_TRUE(open_close_file(TEST_1_CGROUP_CONTROLLERS));
     f8a:	83 ec 0c             	sub    $0xc,%esp
     f8d:	68 8c ce 00 00       	push   $0xce8c
     f92:	e8 db f1 ff ff       	call   172 <open_close_file>
     f97:	83 c4 10             	add    $0x10,%esp
     f9a:	85 c0                	test   %eax,%eax
     f9c:	74 19                	je     fb7 <test_opening_and_closing_cgroup_files+0xba>
     f9e:	eb 6e                	jmp    100e <test_opening_and_closing_cgroup_files+0x111>
     fa0:	83 ec 08             	sub    $0x8,%esp
     fa3:	68 3c bf 00 00       	push   $0xbf3c
     fa8:	6a 01                	push   $0x1
     faa:	e8 b8 ab 00 00       	call   bb67 <printf>
     faf:	83 c3 01             	add    $0x1,%ebx
     fb2:	83 c4 10             	add    $0x10,%esp
     fb5:	eb 05                	jmp    fbc <test_opening_and_closing_cgroup_files+0xbf>
     fb7:	bb 00 00 00 00       	mov    $0x0,%ebx
     fbc:	83 ec 0c             	sub    $0xc,%esp
     fbf:	68 b0 ce 00 00       	push   $0xceb0
     fc4:	e8 3a a7 00 00       	call   b703 <strlen>
     fc9:	89 c7                	mov    %eax,%edi
     fcb:	c7 04 24 3e bf 00 00 	movl   $0xbf3e,(%esp)
     fd2:	e8 2c a7 00 00       	call   b703 <strlen>
     fd7:	8d 44 07 02          	lea    0x2(%edi,%eax,1),%eax
     fdb:	83 c4 10             	add    $0x10,%esp
     fde:	39 d8                	cmp    %ebx,%eax
     fe0:	77 be                	ja     fa0 <test_opening_and_closing_cgroup_files+0xa3>
     fe2:	83 ec 0c             	sub    $0xc,%esp
     fe5:	68 87 01 00 00       	push   $0x187
     fea:	68 f9 bf 00 00       	push   $0xbff9
     fef:	56                   	push   %esi
     ff0:	68 dc ce 00 00       	push   $0xcedc
     ff5:	6a 01                	push   $0x1
     ff7:	e8 6b ab 00 00       	call   bb67 <printf>
     ffc:	c7 05 40 42 01 00 01 	movl   $0x1,0x14240
    1003:	00 00 00 
    1006:	83 c4 20             	add    $0x20,%esp
    1009:	e9 38 08 00 00       	jmp    1846 <test_opening_and_closing_cgroup_files+0x949>
    ASSERT_TRUE(open_close_file(TEST_1_CGROUP_SUBTREE_CONTROL));
    100e:	83 ec 0c             	sub    $0xc,%esp
    1011:	68 88 ca 00 00       	push   $0xca88
    1016:	e8 57 f1 ff ff       	call   172 <open_close_file>
    101b:	83 c4 10             	add    $0x10,%esp
    101e:	85 c0                	test   %eax,%eax
    1020:	74 19                	je     103b <test_opening_and_closing_cgroup_files+0x13e>
    1022:	eb 6e                	jmp    1092 <test_opening_and_closing_cgroup_files+0x195>
    1024:	83 ec 08             	sub    $0x8,%esp
    1027:	68 3c bf 00 00       	push   $0xbf3c
    102c:	6a 01                	push   $0x1
    102e:	e8 34 ab 00 00       	call   bb67 <printf>
    1033:	83 c3 01             	add    $0x1,%ebx
    1036:	83 c4 10             	add    $0x10,%esp
    1039:	eb 05                	jmp    1040 <test_opening_and_closing_cgroup_files+0x143>
    103b:	bb 00 00 00 00       	mov    $0x0,%ebx
    1040:	83 ec 0c             	sub    $0xc,%esp
    1043:	68 30 cf 00 00       	push   $0xcf30
    1048:	e8 b6 a6 00 00       	call   b703 <strlen>
    104d:	89 c7                	mov    %eax,%edi
    104f:	c7 04 24 3e bf 00 00 	movl   $0xbf3e,(%esp)
    1056:	e8 a8 a6 00 00       	call   b703 <strlen>
    105b:	8d 44 07 02          	lea    0x2(%edi,%eax,1),%eax
    105f:	83 c4 10             	add    $0x10,%esp
    1062:	39 d8                	cmp    %ebx,%eax
    1064:	77 be                	ja     1024 <test_opening_and_closing_cgroup_files+0x127>
    1066:	83 ec 0c             	sub    $0xc,%esp
    1069:	68 88 01 00 00       	push   $0x188
    106e:	68 f9 bf 00 00       	push   $0xbff9
    1073:	56                   	push   %esi
    1074:	68 60 cf 00 00       	push   $0xcf60
    1079:	6a 01                	push   $0x1
    107b:	e8 e7 aa 00 00       	call   bb67 <printf>
    1080:	c7 05 40 42 01 00 01 	movl   $0x1,0x14240
    1087:	00 00 00 
    108a:	83 c4 20             	add    $0x20,%esp
    108d:	e9 b4 07 00 00       	jmp    1846 <test_opening_and_closing_cgroup_files+0x949>
    ASSERT_TRUE(open_close_file(TEST_1_CGROUP_EVENTS));
    1092:	83 ec 0c             	sub    $0xc,%esp
    1095:	68 21 c1 00 00       	push   $0xc121
    109a:	e8 d3 f0 ff ff       	call   172 <open_close_file>
    109f:	83 c4 10             	add    $0x10,%esp
    10a2:	85 c0                	test   %eax,%eax
    10a4:	74 19                	je     10bf <test_opening_and_closing_cgroup_files+0x1c2>
    10a6:	eb 6e                	jmp    1116 <test_opening_and_closing_cgroup_files+0x219>
    10a8:	83 ec 08             	sub    $0x8,%esp
    10ab:	68 3c bf 00 00       	push   $0xbf3c
    10b0:	6a 01                	push   $0x1
    10b2:	e8 b0 aa 00 00       	call   bb67 <printf>
    10b7:	83 c3 01             	add    $0x1,%ebx
    10ba:	83 c4 10             	add    $0x10,%esp
    10bd:	eb 05                	jmp    10c4 <test_opening_and_closing_cgroup_files+0x1c7>
    10bf:	bb 00 00 00 00       	mov    $0x0,%ebx
    10c4:	83 ec 0c             	sub    $0xc,%esp
    10c7:	68 b8 cf 00 00       	push   $0xcfb8
    10cc:	e8 32 a6 00 00       	call   b703 <strlen>
    10d1:	89 c7                	mov    %eax,%edi
    10d3:	c7 04 24 3e bf 00 00 	movl   $0xbf3e,(%esp)
    10da:	e8 24 a6 00 00       	call   b703 <strlen>
    10df:	8d 44 07 02          	lea    0x2(%edi,%eax,1),%eax
    10e3:	83 c4 10             	add    $0x10,%esp
    10e6:	39 d8                	cmp    %ebx,%eax
    10e8:	77 be                	ja     10a8 <test_opening_and_closing_cgroup_files+0x1ab>
    10ea:	83 ec 0c             	sub    $0xc,%esp
    10ed:	68 89 01 00 00       	push   $0x189
    10f2:	68 f9 bf 00 00       	push   $0xbff9
    10f7:	56                   	push   %esi
    10f8:	68 e0 cf 00 00       	push   $0xcfe0
    10fd:	6a 01                	push   $0x1
    10ff:	e8 63 aa 00 00       	call   bb67 <printf>
    1104:	c7 05 40 42 01 00 01 	movl   $0x1,0x14240
    110b:	00 00 00 
    110e:	83 c4 20             	add    $0x20,%esp
    1111:	e9 30 07 00 00       	jmp    1846 <test_opening_and_closing_cgroup_files+0x949>
    ASSERT_TRUE(open_close_file(TEST_1_CGROUP_DESCENDANTS));
    1116:	83 ec 0c             	sub    $0xc,%esp
    1119:	68 30 d0 00 00       	push   $0xd030
    111e:	e8 4f f0 ff ff       	call   172 <open_close_file>
    1123:	83 c4 10             	add    $0x10,%esp
    1126:	85 c0                	test   %eax,%eax
    1128:	74 19                	je     1143 <test_opening_and_closing_cgroup_files+0x246>
    112a:	eb 6e                	jmp    119a <test_opening_and_closing_cgroup_files+0x29d>
    112c:	83 ec 08             	sub    $0x8,%esp
    112f:	68 3c bf 00 00       	push   $0xbf3c
    1134:	6a 01                	push   $0x1
    1136:	e8 2c aa 00 00       	call   bb67 <printf>
    113b:	83 c3 01             	add    $0x1,%ebx
    113e:	83 c4 10             	add    $0x10,%esp
    1141:	eb 05                	jmp    1148 <test_opening_and_closing_cgroup_files+0x24b>
    1143:	bb 00 00 00 00       	mov    $0x0,%ebx
    1148:	83 ec 0c             	sub    $0xc,%esp
    114b:	68 58 d0 00 00       	push   $0xd058
    1150:	e8 ae a5 00 00       	call   b703 <strlen>
    1155:	89 c7                	mov    %eax,%edi
    1157:	c7 04 24 3e bf 00 00 	movl   $0xbf3e,(%esp)
    115e:	e8 a0 a5 00 00       	call   b703 <strlen>
    1163:	8d 44 07 02          	lea    0x2(%edi,%eax,1),%eax
    1167:	83 c4 10             	add    $0x10,%esp
    116a:	39 d8                	cmp    %ebx,%eax
    116c:	77 be                	ja     112c <test_opening_and_closing_cgroup_files+0x22f>
    116e:	83 ec 0c             	sub    $0xc,%esp
    1171:	68 8a 01 00 00       	push   $0x18a
    1176:	68 f9 bf 00 00       	push   $0xbff9
    117b:	56                   	push   %esi
    117c:	68 84 d0 00 00       	push   $0xd084
    1181:	6a 01                	push   $0x1
    1183:	e8 df a9 00 00       	call   bb67 <printf>
    1188:	c7 05 40 42 01 00 01 	movl   $0x1,0x14240
    118f:	00 00 00 
    1192:	83 c4 20             	add    $0x20,%esp
    1195:	e9 ac 06 00 00       	jmp    1846 <test_opening_and_closing_cgroup_files+0x949>
    ASSERT_TRUE(open_close_file(TEST_1_CGROUP_MAX_DEPTH));
    119a:	83 ec 0c             	sub    $0xc,%esp
    119d:	68 d8 d0 00 00       	push   $0xd0d8
    11a2:	e8 cb ef ff ff       	call   172 <open_close_file>
    11a7:	83 c4 10             	add    $0x10,%esp
    11aa:	85 c0                	test   %eax,%eax
    11ac:	74 19                	je     11c7 <test_opening_and_closing_cgroup_files+0x2ca>
    11ae:	eb 6e                	jmp    121e <test_opening_and_closing_cgroup_files+0x321>
    11b0:	83 ec 08             	sub    $0x8,%esp
    11b3:	68 3c bf 00 00       	push   $0xbf3c
    11b8:	6a 01                	push   $0x1
    11ba:	e8 a8 a9 00 00       	call   bb67 <printf>
    11bf:	83 c3 01             	add    $0x1,%ebx
    11c2:	83 c4 10             	add    $0x10,%esp
    11c5:	eb 05                	jmp    11cc <test_opening_and_closing_cgroup_files+0x2cf>
    11c7:	bb 00 00 00 00       	mov    $0x0,%ebx
    11cc:	83 ec 0c             	sub    $0xc,%esp
    11cf:	68 f8 d0 00 00       	push   $0xd0f8
    11d4:	e8 2a a5 00 00       	call   b703 <strlen>
    11d9:	89 c7                	mov    %eax,%edi
    11db:	c7 04 24 3e bf 00 00 	movl   $0xbf3e,(%esp)
    11e2:	e8 1c a5 00 00       	call   b703 <strlen>
    11e7:	8d 44 07 02          	lea    0x2(%edi,%eax,1),%eax
    11eb:	83 c4 10             	add    $0x10,%esp
    11ee:	39 d8                	cmp    %ebx,%eax
    11f0:	77 be                	ja     11b0 <test_opening_and_closing_cgroup_files+0x2b3>
    11f2:	83 ec 0c             	sub    $0xc,%esp
    11f5:	68 8b 01 00 00       	push   $0x18b
    11fa:	68 f9 bf 00 00       	push   $0xbff9
    11ff:	56                   	push   %esi
    1200:	68 24 d1 00 00       	push   $0xd124
    1205:	6a 01                	push   $0x1
    1207:	e8 5b a9 00 00       	call   bb67 <printf>
    120c:	c7 05 40 42 01 00 01 	movl   $0x1,0x14240
    1213:	00 00 00 
    1216:	83 c4 20             	add    $0x20,%esp
    1219:	e9 28 06 00 00       	jmp    1846 <test_opening_and_closing_cgroup_files+0x949>
    ASSERT_TRUE(open_close_file(TEST_1_CGROUP_STAT));
    121e:	83 ec 0c             	sub    $0xc,%esp
    1221:	68 3d c1 00 00       	push   $0xc13d
    1226:	e8 47 ef ff ff       	call   172 <open_close_file>
    122b:	83 c4 10             	add    $0x10,%esp
    122e:	85 c0                	test   %eax,%eax
    1230:	74 19                	je     124b <test_opening_and_closing_cgroup_files+0x34e>
    1232:	eb 6e                	jmp    12a2 <test_opening_and_closing_cgroup_files+0x3a5>
    1234:	83 ec 08             	sub    $0x8,%esp
    1237:	68 3c bf 00 00       	push   $0xbf3c
    123c:	6a 01                	push   $0x1
    123e:	e8 24 a9 00 00       	call   bb67 <printf>
    1243:	83 c3 01             	add    $0x1,%ebx
    1246:	83 c4 10             	add    $0x10,%esp
    1249:	eb 05                	jmp    1250 <test_opening_and_closing_cgroup_files+0x353>
    124b:	bb 00 00 00 00       	mov    $0x0,%ebx
    1250:	83 ec 0c             	sub    $0xc,%esp
    1253:	68 78 d1 00 00       	push   $0xd178
    1258:	e8 a6 a4 00 00       	call   b703 <strlen>
    125d:	89 c7                	mov    %eax,%edi
    125f:	c7 04 24 3e bf 00 00 	movl   $0xbf3e,(%esp)
    1266:	e8 98 a4 00 00       	call   b703 <strlen>
    126b:	8d 44 07 02          	lea    0x2(%edi,%eax,1),%eax
    126f:	83 c4 10             	add    $0x10,%esp
    1272:	39 d8                	cmp    %ebx,%eax
    1274:	77 be                	ja     1234 <test_opening_and_closing_cgroup_files+0x337>
    1276:	83 ec 0c             	sub    $0xc,%esp
    1279:	68 8c 01 00 00       	push   $0x18c
    127e:	68 f9 bf 00 00       	push   $0xbff9
    1283:	56                   	push   %esi
    1284:	68 9c d1 00 00       	push   $0xd19c
    1289:	6a 01                	push   $0x1
    128b:	e8 d7 a8 00 00       	call   bb67 <printf>
    1290:	c7 05 40 42 01 00 01 	movl   $0x1,0x14240
    1297:	00 00 00 
    129a:	83 c4 20             	add    $0x20,%esp
    129d:	e9 a4 05 00 00       	jmp    1846 <test_opening_and_closing_cgroup_files+0x949>
    ASSERT_TRUE(open_close_file(TEST_1_CPU_MAX));
    12a2:	83 ec 0c             	sub    $0xc,%esp
    12a5:	68 57 c1 00 00       	push   $0xc157
    12aa:	e8 c3 ee ff ff       	call   172 <open_close_file>
    12af:	83 c4 10             	add    $0x10,%esp
    12b2:	85 c0                	test   %eax,%eax
    12b4:	74 19                	je     12cf <test_opening_and_closing_cgroup_files+0x3d2>
    12b6:	eb 6e                	jmp    1326 <test_opening_and_closing_cgroup_files+0x429>
    12b8:	83 ec 08             	sub    $0x8,%esp
    12bb:	68 3c bf 00 00       	push   $0xbf3c
    12c0:	6a 01                	push   $0x1
    12c2:	e8 a0 a8 00 00       	call   bb67 <printf>
    12c7:	83 c3 01             	add    $0x1,%ebx
    12ca:	83 c4 10             	add    $0x10,%esp
    12cd:	eb 05                	jmp    12d4 <test_opening_and_closing_cgroup_files+0x3d7>
    12cf:	bb 00 00 00 00       	mov    $0x0,%ebx
    12d4:	83 ec 0c             	sub    $0xc,%esp
    12d7:	68 ec d1 00 00       	push   $0xd1ec
    12dc:	e8 22 a4 00 00       	call   b703 <strlen>
    12e1:	89 c7                	mov    %eax,%edi
    12e3:	c7 04 24 3e bf 00 00 	movl   $0xbf3e,(%esp)
    12ea:	e8 14 a4 00 00       	call   b703 <strlen>
    12ef:	8d 44 07 02          	lea    0x2(%edi,%eax,1),%eax
    12f3:	83 c4 10             	add    $0x10,%esp
    12f6:	39 d8                	cmp    %ebx,%eax
    12f8:	77 be                	ja     12b8 <test_opening_and_closing_cgroup_files+0x3bb>
    12fa:	83 ec 0c             	sub    $0xc,%esp
    12fd:	68 8d 01 00 00       	push   $0x18d
    1302:	68 f9 bf 00 00       	push   $0xbff9
    1307:	56                   	push   %esi
    1308:	68 0c d2 00 00       	push   $0xd20c
    130d:	6a 01                	push   $0x1
    130f:	e8 53 a8 00 00       	call   bb67 <printf>
    1314:	c7 05 40 42 01 00 01 	movl   $0x1,0x14240
    131b:	00 00 00 
    131e:	83 c4 20             	add    $0x20,%esp
    1321:	e9 20 05 00 00       	jmp    1846 <test_opening_and_closing_cgroup_files+0x949>
    ASSERT_TRUE(open_close_file(TEST_1_CPU_WEIGHT));
    1326:	83 ec 0c             	sub    $0xc,%esp
    1329:	68 6d c1 00 00       	push   $0xc16d
    132e:	e8 3f ee ff ff       	call   172 <open_close_file>
    1333:	83 c4 10             	add    $0x10,%esp
    1336:	85 c0                	test   %eax,%eax
    1338:	74 19                	je     1353 <test_opening_and_closing_cgroup_files+0x456>
    133a:	eb 6e                	jmp    13aa <test_opening_and_closing_cgroup_files+0x4ad>
    133c:	83 ec 08             	sub    $0x8,%esp
    133f:	68 3c bf 00 00       	push   $0xbf3c
    1344:	6a 01                	push   $0x1
    1346:	e8 1c a8 00 00       	call   bb67 <printf>
    134b:	83 c3 01             	add    $0x1,%ebx
    134e:	83 c4 10             	add    $0x10,%esp
    1351:	eb 05                	jmp    1358 <test_opening_and_closing_cgroup_files+0x45b>
    1353:	bb 00 00 00 00       	mov    $0x0,%ebx
    1358:	83 ec 0c             	sub    $0xc,%esp
    135b:	68 58 d2 00 00       	push   $0xd258
    1360:	e8 9e a3 00 00       	call   b703 <strlen>
    1365:	89 c7                	mov    %eax,%edi
    1367:	c7 04 24 3e bf 00 00 	movl   $0xbf3e,(%esp)
    136e:	e8 90 a3 00 00       	call   b703 <strlen>
    1373:	8d 44 07 02          	lea    0x2(%edi,%eax,1),%eax
    1377:	83 c4 10             	add    $0x10,%esp
    137a:	39 d8                	cmp    %ebx,%eax
    137c:	77 be                	ja     133c <test_opening_and_closing_cgroup_files+0x43f>
    137e:	83 ec 0c             	sub    $0xc,%esp
    1381:	68 8e 01 00 00       	push   $0x18e
    1386:	68 f9 bf 00 00       	push   $0xbff9
    138b:	56                   	push   %esi
    138c:	68 7c d2 00 00       	push   $0xd27c
    1391:	6a 01                	push   $0x1
    1393:	e8 cf a7 00 00       	call   bb67 <printf>
    1398:	c7 05 40 42 01 00 01 	movl   $0x1,0x14240
    139f:	00 00 00 
    13a2:	83 c4 20             	add    $0x20,%esp
    13a5:	e9 9c 04 00 00       	jmp    1846 <test_opening_and_closing_cgroup_files+0x949>
    ASSERT_TRUE(open_close_file(TEST_1_CPU_STAT));
    13aa:	83 ec 0c             	sub    $0xc,%esp
    13ad:	68 86 c1 00 00       	push   $0xc186
    13b2:	e8 bb ed ff ff       	call   172 <open_close_file>
    13b7:	83 c4 10             	add    $0x10,%esp
    13ba:	85 c0                	test   %eax,%eax
    13bc:	74 19                	je     13d7 <test_opening_and_closing_cgroup_files+0x4da>
    13be:	eb 6e                	jmp    142e <test_opening_and_closing_cgroup_files+0x531>
    13c0:	83 ec 08             	sub    $0x8,%esp
    13c3:	68 3c bf 00 00       	push   $0xbf3c
    13c8:	6a 01                	push   $0x1
    13ca:	e8 98 a7 00 00       	call   bb67 <printf>
    13cf:	83 c3 01             	add    $0x1,%ebx
    13d2:	83 c4 10             	add    $0x10,%esp
    13d5:	eb 05                	jmp    13dc <test_opening_and_closing_cgroup_files+0x4df>
    13d7:	bb 00 00 00 00       	mov    $0x0,%ebx
    13dc:	83 ec 0c             	sub    $0xc,%esp
    13df:	68 c8 d2 00 00       	push   $0xd2c8
    13e4:	e8 1a a3 00 00       	call   b703 <strlen>
    13e9:	89 c7                	mov    %eax,%edi
    13eb:	c7 04 24 3e bf 00 00 	movl   $0xbf3e,(%esp)
    13f2:	e8 0c a3 00 00       	call   b703 <strlen>
    13f7:	8d 44 07 02          	lea    0x2(%edi,%eax,1),%eax
    13fb:	83 c4 10             	add    $0x10,%esp
    13fe:	39 d8                	cmp    %ebx,%eax
    1400:	77 be                	ja     13c0 <test_opening_and_closing_cgroup_files+0x4c3>
    1402:	83 ec 0c             	sub    $0xc,%esp
    1405:	68 8f 01 00 00       	push   $0x18f
    140a:	68 f9 bf 00 00       	push   $0xbff9
    140f:	56                   	push   %esi
    1410:	68 ec d2 00 00       	push   $0xd2ec
    1415:	6a 01                	push   $0x1
    1417:	e8 4b a7 00 00       	call   bb67 <printf>
    141c:	c7 05 40 42 01 00 01 	movl   $0x1,0x14240
    1423:	00 00 00 
    1426:	83 c4 20             	add    $0x20,%esp
    1429:	e9 18 04 00 00       	jmp    1846 <test_opening_and_closing_cgroup_files+0x949>
    ASSERT_TRUE(open_close_file(TEST_1_PID_MAX));
    142e:	83 ec 0c             	sub    $0xc,%esp
    1431:	68 9d c1 00 00       	push   $0xc19d
    1436:	e8 37 ed ff ff       	call   172 <open_close_file>
    143b:	83 c4 10             	add    $0x10,%esp
    143e:	85 c0                	test   %eax,%eax
    1440:	74 19                	je     145b <test_opening_and_closing_cgroup_files+0x55e>
    1442:	eb 6e                	jmp    14b2 <test_opening_and_closing_cgroup_files+0x5b5>
    1444:	83 ec 08             	sub    $0x8,%esp
    1447:	68 3c bf 00 00       	push   $0xbf3c
    144c:	6a 01                	push   $0x1
    144e:	e8 14 a7 00 00       	call   bb67 <printf>
    1453:	83 c3 01             	add    $0x1,%ebx
    1456:	83 c4 10             	add    $0x10,%esp
    1459:	eb 05                	jmp    1460 <test_opening_and_closing_cgroup_files+0x563>
    145b:	bb 00 00 00 00       	mov    $0x0,%ebx
    1460:	83 ec 0c             	sub    $0xc,%esp
    1463:	68 38 d3 00 00       	push   $0xd338
    1468:	e8 96 a2 00 00       	call   b703 <strlen>
    146d:	89 c7                	mov    %eax,%edi
    146f:	c7 04 24 3e bf 00 00 	movl   $0xbf3e,(%esp)
    1476:	e8 88 a2 00 00       	call   b703 <strlen>
    147b:	8d 44 07 02          	lea    0x2(%edi,%eax,1),%eax
    147f:	83 c4 10             	add    $0x10,%esp
    1482:	39 d8                	cmp    %ebx,%eax
    1484:	77 be                	ja     1444 <test_opening_and_closing_cgroup_files+0x547>
    1486:	83 ec 0c             	sub    $0xc,%esp
    1489:	68 90 01 00 00       	push   $0x190
    148e:	68 f9 bf 00 00       	push   $0xbff9
    1493:	56                   	push   %esi
    1494:	68 58 d3 00 00       	push   $0xd358
    1499:	6a 01                	push   $0x1
    149b:	e8 c7 a6 00 00       	call   bb67 <printf>
    14a0:	c7 05 40 42 01 00 01 	movl   $0x1,0x14240
    14a7:	00 00 00 
    14aa:	83 c4 20             	add    $0x20,%esp
    14ad:	e9 94 03 00 00       	jmp    1846 <test_opening_and_closing_cgroup_files+0x949>
    ASSERT_TRUE(open_close_file(TEST_1_PID_CURRENT));
    14b2:	83 ec 0c             	sub    $0xc,%esp
    14b5:	68 b3 c1 00 00       	push   $0xc1b3
    14ba:	e8 b3 ec ff ff       	call   172 <open_close_file>
    14bf:	83 c4 10             	add    $0x10,%esp
    14c2:	85 c0                	test   %eax,%eax
    14c4:	74 19                	je     14df <test_opening_and_closing_cgroup_files+0x5e2>
    14c6:	eb 6e                	jmp    1536 <test_opening_and_closing_cgroup_files+0x639>
    14c8:	83 ec 08             	sub    $0x8,%esp
    14cb:	68 3c bf 00 00       	push   $0xbf3c
    14d0:	6a 01                	push   $0x1
    14d2:	e8 90 a6 00 00       	call   bb67 <printf>
    14d7:	83 c3 01             	add    $0x1,%ebx
    14da:	83 c4 10             	add    $0x10,%esp
    14dd:	eb 05                	jmp    14e4 <test_opening_and_closing_cgroup_files+0x5e7>
    14df:	bb 00 00 00 00       	mov    $0x0,%ebx
    14e4:	83 ec 0c             	sub    $0xc,%esp
    14e7:	68 a4 d3 00 00       	push   $0xd3a4
    14ec:	e8 12 a2 00 00       	call   b703 <strlen>
    14f1:	89 c7                	mov    %eax,%edi
    14f3:	c7 04 24 3e bf 00 00 	movl   $0xbf3e,(%esp)
    14fa:	e8 04 a2 00 00       	call   b703 <strlen>
    14ff:	8d 44 07 02          	lea    0x2(%edi,%eax,1),%eax
    1503:	83 c4 10             	add    $0x10,%esp
    1506:	39 d8                	cmp    %ebx,%eax
    1508:	77 be                	ja     14c8 <test_opening_and_closing_cgroup_files+0x5cb>
    150a:	83 ec 0c             	sub    $0xc,%esp
    150d:	68 91 01 00 00       	push   $0x191
    1512:	68 f9 bf 00 00       	push   $0xbff9
    1517:	56                   	push   %esi
    1518:	68 c8 d3 00 00       	push   $0xd3c8
    151d:	6a 01                	push   $0x1
    151f:	e8 43 a6 00 00       	call   bb67 <printf>
    1524:	c7 05 40 42 01 00 01 	movl   $0x1,0x14240
    152b:	00 00 00 
    152e:	83 c4 20             	add    $0x20,%esp
    1531:	e9 10 03 00 00       	jmp    1846 <test_opening_and_closing_cgroup_files+0x949>
    ASSERT_TRUE(open_close_file(TEST_1_SET_CPU));
    1536:	83 ec 0c             	sub    $0xc,%esp
    1539:	68 cd c1 00 00       	push   $0xc1cd
    153e:	e8 2f ec ff ff       	call   172 <open_close_file>
    1543:	83 c4 10             	add    $0x10,%esp
    1546:	85 c0                	test   %eax,%eax
    1548:	74 19                	je     1563 <test_opening_and_closing_cgroup_files+0x666>
    154a:	eb 6e                	jmp    15ba <test_opening_and_closing_cgroup_files+0x6bd>
    154c:	83 ec 08             	sub    $0x8,%esp
    154f:	68 3c bf 00 00       	push   $0xbf3c
    1554:	6a 01                	push   $0x1
    1556:	e8 0c a6 00 00       	call   bb67 <printf>
    155b:	83 c3 01             	add    $0x1,%ebx
    155e:	83 c4 10             	add    $0x10,%esp
    1561:	eb 05                	jmp    1568 <test_opening_and_closing_cgroup_files+0x66b>
    1563:	bb 00 00 00 00       	mov    $0x0,%ebx
    1568:	83 ec 0c             	sub    $0xc,%esp
    156b:	68 18 d4 00 00       	push   $0xd418
    1570:	e8 8e a1 00 00       	call   b703 <strlen>
    1575:	89 c7                	mov    %eax,%edi
    1577:	c7 04 24 3e bf 00 00 	movl   $0xbf3e,(%esp)
    157e:	e8 80 a1 00 00       	call   b703 <strlen>
    1583:	8d 44 07 02          	lea    0x2(%edi,%eax,1),%eax
    1587:	83 c4 10             	add    $0x10,%esp
    158a:	39 d8                	cmp    %ebx,%eax
    158c:	77 be                	ja     154c <test_opening_and_closing_cgroup_files+0x64f>
    158e:	83 ec 0c             	sub    $0xc,%esp
    1591:	68 92 01 00 00       	push   $0x192
    1596:	68 f9 bf 00 00       	push   $0xbff9
    159b:	56                   	push   %esi
    159c:	68 38 d4 00 00       	push   $0xd438
    15a1:	6a 01                	push   $0x1
    15a3:	e8 bf a5 00 00       	call   bb67 <printf>
    15a8:	c7 05 40 42 01 00 01 	movl   $0x1,0x14240
    15af:	00 00 00 
    15b2:	83 c4 20             	add    $0x20,%esp
    15b5:	e9 8c 02 00 00       	jmp    1846 <test_opening_and_closing_cgroup_files+0x949>
    ASSERT_TRUE(open_close_file(TEST_1_SET_FRZ));
    15ba:	83 ec 0c             	sub    $0xc,%esp
    15bd:	68 e7 c1 00 00       	push   $0xc1e7
    15c2:	e8 ab eb ff ff       	call   172 <open_close_file>
    15c7:	83 c4 10             	add    $0x10,%esp
    15ca:	85 c0                	test   %eax,%eax
    15cc:	74 19                	je     15e7 <test_opening_and_closing_cgroup_files+0x6ea>
    15ce:	eb 6e                	jmp    163e <test_opening_and_closing_cgroup_files+0x741>
    15d0:	83 ec 08             	sub    $0x8,%esp
    15d3:	68 3c bf 00 00       	push   $0xbf3c
    15d8:	6a 01                	push   $0x1
    15da:	e8 88 a5 00 00       	call   bb67 <printf>
    15df:	83 c3 01             	add    $0x1,%ebx
    15e2:	83 c4 10             	add    $0x10,%esp
    15e5:	eb 05                	jmp    15ec <test_opening_and_closing_cgroup_files+0x6ef>
    15e7:	bb 00 00 00 00       	mov    $0x0,%ebx
    15ec:	83 ec 0c             	sub    $0xc,%esp
    15ef:	68 84 d4 00 00       	push   $0xd484
    15f4:	e8 0a a1 00 00       	call   b703 <strlen>
    15f9:	89 c7                	mov    %eax,%edi
    15fb:	c7 04 24 3e bf 00 00 	movl   $0xbf3e,(%esp)
    1602:	e8 fc a0 00 00       	call   b703 <strlen>
    1607:	8d 44 07 02          	lea    0x2(%edi,%eax,1),%eax
    160b:	83 c4 10             	add    $0x10,%esp
    160e:	39 d8                	cmp    %ebx,%eax
    1610:	77 be                	ja     15d0 <test_opening_and_closing_cgroup_files+0x6d3>
    1612:	83 ec 0c             	sub    $0xc,%esp
    1615:	68 93 01 00 00       	push   $0x193
    161a:	68 f9 bf 00 00       	push   $0xbff9
    161f:	56                   	push   %esi
    1620:	68 a4 d4 00 00       	push   $0xd4a4
    1625:	6a 01                	push   $0x1
    1627:	e8 3b a5 00 00       	call   bb67 <printf>
    162c:	c7 05 40 42 01 00 01 	movl   $0x1,0x14240
    1633:	00 00 00 
    1636:	83 c4 20             	add    $0x20,%esp
    1639:	e9 08 02 00 00       	jmp    1846 <test_opening_and_closing_cgroup_files+0x949>
    ASSERT_TRUE(open_close_file(TEST_1_MEM_CURRENT));
    163e:	83 ec 0c             	sub    $0xc,%esp
    1641:	68 03 c2 00 00       	push   $0xc203
    1646:	e8 27 eb ff ff       	call   172 <open_close_file>
    164b:	83 c4 10             	add    $0x10,%esp
    164e:	85 c0                	test   %eax,%eax
    1650:	74 19                	je     166b <test_opening_and_closing_cgroup_files+0x76e>
    1652:	eb 6e                	jmp    16c2 <test_opening_and_closing_cgroup_files+0x7c5>
    1654:	83 ec 08             	sub    $0x8,%esp
    1657:	68 3c bf 00 00       	push   $0xbf3c
    165c:	6a 01                	push   $0x1
    165e:	e8 04 a5 00 00       	call   bb67 <printf>
    1663:	83 c3 01             	add    $0x1,%ebx
    1666:	83 c4 10             	add    $0x10,%esp
    1669:	eb 05                	jmp    1670 <test_opening_and_closing_cgroup_files+0x773>
    166b:	bb 00 00 00 00       	mov    $0x0,%ebx
    1670:	83 ec 0c             	sub    $0xc,%esp
    1673:	68 f0 d4 00 00       	push   $0xd4f0
    1678:	e8 86 a0 00 00       	call   b703 <strlen>
    167d:	89 c7                	mov    %eax,%edi
    167f:	c7 04 24 3e bf 00 00 	movl   $0xbf3e,(%esp)
    1686:	e8 78 a0 00 00       	call   b703 <strlen>
    168b:	8d 44 07 02          	lea    0x2(%edi,%eax,1),%eax
    168f:	83 c4 10             	add    $0x10,%esp
    1692:	39 d8                	cmp    %ebx,%eax
    1694:	77 be                	ja     1654 <test_opening_and_closing_cgroup_files+0x757>
    1696:	83 ec 0c             	sub    $0xc,%esp
    1699:	68 94 01 00 00       	push   $0x194
    169e:	68 f9 bf 00 00       	push   $0xbff9
    16a3:	56                   	push   %esi
    16a4:	68 14 d5 00 00       	push   $0xd514
    16a9:	6a 01                	push   $0x1
    16ab:	e8 b7 a4 00 00       	call   bb67 <printf>
    16b0:	c7 05 40 42 01 00 01 	movl   $0x1,0x14240
    16b7:	00 00 00 
    16ba:	83 c4 20             	add    $0x20,%esp
    16bd:	e9 84 01 00 00       	jmp    1846 <test_opening_and_closing_cgroup_files+0x949>
    ASSERT_TRUE(open_close_file(TEST_1_MEM_MAX));
    16c2:	83 ec 0c             	sub    $0xc,%esp
    16c5:	68 20 c2 00 00       	push   $0xc220
    16ca:	e8 a3 ea ff ff       	call   172 <open_close_file>
    16cf:	83 c4 10             	add    $0x10,%esp
    16d2:	85 c0                	test   %eax,%eax
    16d4:	74 19                	je     16ef <test_opening_and_closing_cgroup_files+0x7f2>
    16d6:	eb 6e                	jmp    1746 <test_opening_and_closing_cgroup_files+0x849>
    16d8:	83 ec 08             	sub    $0x8,%esp
    16db:	68 3c bf 00 00       	push   $0xbf3c
    16e0:	6a 01                	push   $0x1
    16e2:	e8 80 a4 00 00       	call   bb67 <printf>
    16e7:	83 c3 01             	add    $0x1,%ebx
    16ea:	83 c4 10             	add    $0x10,%esp
    16ed:	eb 05                	jmp    16f4 <test_opening_and_closing_cgroup_files+0x7f7>
    16ef:	bb 00 00 00 00       	mov    $0x0,%ebx
    16f4:	83 ec 0c             	sub    $0xc,%esp
    16f7:	68 64 d5 00 00       	push   $0xd564
    16fc:	e8 02 a0 00 00       	call   b703 <strlen>
    1701:	89 c7                	mov    %eax,%edi
    1703:	c7 04 24 3e bf 00 00 	movl   $0xbf3e,(%esp)
    170a:	e8 f4 9f 00 00       	call   b703 <strlen>
    170f:	8d 44 07 02          	lea    0x2(%edi,%eax,1),%eax
    1713:	83 c4 10             	add    $0x10,%esp
    1716:	39 d8                	cmp    %ebx,%eax
    1718:	77 be                	ja     16d8 <test_opening_and_closing_cgroup_files+0x7db>
    171a:	83 ec 0c             	sub    $0xc,%esp
    171d:	68 95 01 00 00       	push   $0x195
    1722:	68 f9 bf 00 00       	push   $0xbff9
    1727:	56                   	push   %esi
    1728:	68 84 d5 00 00       	push   $0xd584
    172d:	6a 01                	push   $0x1
    172f:	e8 33 a4 00 00       	call   bb67 <printf>
    1734:	c7 05 40 42 01 00 01 	movl   $0x1,0x14240
    173b:	00 00 00 
    173e:	83 c4 20             	add    $0x20,%esp
    1741:	e9 00 01 00 00       	jmp    1846 <test_opening_and_closing_cgroup_files+0x949>
    ASSERT_TRUE(open_close_file(TEST_1_MEM_MIN));
    1746:	83 ec 0c             	sub    $0xc,%esp
    1749:	68 39 c2 00 00       	push   $0xc239
    174e:	e8 1f ea ff ff       	call   172 <open_close_file>
    1753:	83 c4 10             	add    $0x10,%esp
    1756:	85 c0                	test   %eax,%eax
    1758:	74 19                	je     1773 <test_opening_and_closing_cgroup_files+0x876>
    175a:	eb 6b                	jmp    17c7 <test_opening_and_closing_cgroup_files+0x8ca>
    175c:	83 ec 08             	sub    $0x8,%esp
    175f:	68 3c bf 00 00       	push   $0xbf3c
    1764:	6a 01                	push   $0x1
    1766:	e8 fc a3 00 00       	call   bb67 <printf>
    176b:	83 c3 01             	add    $0x1,%ebx
    176e:	83 c4 10             	add    $0x10,%esp
    1771:	eb 05                	jmp    1778 <test_opening_and_closing_cgroup_files+0x87b>
    1773:	bb 00 00 00 00       	mov    $0x0,%ebx
    1778:	83 ec 0c             	sub    $0xc,%esp
    177b:	68 d0 d5 00 00       	push   $0xd5d0
    1780:	e8 7e 9f 00 00       	call   b703 <strlen>
    1785:	89 c7                	mov    %eax,%edi
    1787:	c7 04 24 3e bf 00 00 	movl   $0xbf3e,(%esp)
    178e:	e8 70 9f 00 00       	call   b703 <strlen>
    1793:	8d 44 07 02          	lea    0x2(%edi,%eax,1),%eax
    1797:	83 c4 10             	add    $0x10,%esp
    179a:	39 d8                	cmp    %ebx,%eax
    179c:	77 be                	ja     175c <test_opening_and_closing_cgroup_files+0x85f>
    179e:	83 ec 0c             	sub    $0xc,%esp
    17a1:	68 96 01 00 00       	push   $0x196
    17a6:	68 f9 bf 00 00       	push   $0xbff9
    17ab:	56                   	push   %esi
    17ac:	68 f0 d5 00 00       	push   $0xd5f0
    17b1:	6a 01                	push   $0x1
    17b3:	e8 af a3 00 00       	call   bb67 <printf>
    17b8:	c7 05 40 42 01 00 01 	movl   $0x1,0x14240
    17bf:	00 00 00 
    17c2:	83 c4 20             	add    $0x20,%esp
    17c5:	eb 7f                	jmp    1846 <test_opening_and_closing_cgroup_files+0x949>
    ASSERT_TRUE(open_close_file(TEST_1_MEM_STAT));
    17c7:	83 ec 0c             	sub    $0xc,%esp
    17ca:	68 52 c2 00 00       	push   $0xc252
    17cf:	e8 9e e9 ff ff       	call   172 <open_close_file>
    17d4:	83 c4 10             	add    $0x10,%esp
    17d7:	85 c0                	test   %eax,%eax
    17d9:	74 19                	je     17f4 <test_opening_and_closing_cgroup_files+0x8f7>
    17db:	eb 69                	jmp    1846 <test_opening_and_closing_cgroup_files+0x949>
    17dd:	83 ec 08             	sub    $0x8,%esp
    17e0:	68 3c bf 00 00       	push   $0xbf3c
    17e5:	6a 01                	push   $0x1
    17e7:	e8 7b a3 00 00       	call   bb67 <printf>
    17ec:	83 c3 01             	add    $0x1,%ebx
    17ef:	83 c4 10             	add    $0x10,%esp
    17f2:	eb 05                	jmp    17f9 <test_opening_and_closing_cgroup_files+0x8fc>
    17f4:	bb 00 00 00 00       	mov    $0x0,%ebx
    17f9:	83 ec 0c             	sub    $0xc,%esp
    17fc:	68 3c d6 00 00       	push   $0xd63c
    1801:	e8 fd 9e 00 00       	call   b703 <strlen>
    1806:	89 c7                	mov    %eax,%edi
    1808:	c7 04 24 3e bf 00 00 	movl   $0xbf3e,(%esp)
    180f:	e8 ef 9e 00 00       	call   b703 <strlen>
    1814:	8d 44 07 02          	lea    0x2(%edi,%eax,1),%eax
    1818:	83 c4 10             	add    $0x10,%esp
    181b:	39 d8                	cmp    %ebx,%eax
    181d:	77 be                	ja     17dd <test_opening_and_closing_cgroup_files+0x8e0>
    181f:	83 ec 0c             	sub    $0xc,%esp
    1822:	68 97 01 00 00       	push   $0x197
    1827:	68 f9 bf 00 00       	push   $0xbff9
    182c:	56                   	push   %esi
    182d:	68 60 d6 00 00       	push   $0xd660
    1832:	6a 01                	push   $0x1
    1834:	e8 2e a3 00 00       	call   bb67 <printf>
    1839:	c7 05 40 42 01 00 01 	movl   $0x1,0x14240
    1840:	00 00 00 
    1843:	83 c4 20             	add    $0x20,%esp
}
    1846:	8d 65 f4             	lea    -0xc(%ebp),%esp
    1849:	5b                   	pop    %ebx
    184a:	5e                   	pop    %esi
    184b:	5f                   	pop    %edi
    184c:	5d                   	pop    %ebp
    184d:	c3                   	ret    

0000184e <test_reading_cgroup_files>:

TEST(test_reading_cgroup_files)
{
    184e:	55                   	push   %ebp
    184f:	89 e5                	mov    %esp,%ebp
    1851:	56                   	push   %esi
    1852:	53                   	push   %ebx
    ASSERT_TRUE(read_file(TEST_1_CGROUP_PROCS, 1));
    1853:	83 ec 08             	sub    $0x8,%esp
    1856:	6a 01                	push   $0x1
    1858:	68 06 c1 00 00       	push   $0xc106
    185d:	e8 3a e9 ff ff       	call   19c <read_file>
    1862:	83 c4 10             	add    $0x10,%esp
    1865:	85 c0                	test   %eax,%eax
    1867:	75 72                	jne    18db <test_reading_cgroup_files+0x8d>
    1869:	eb 17                	jmp    1882 <test_reading_cgroup_files+0x34>
    186b:	83 ec 08             	sub    $0x8,%esp
    186e:	68 3c bf 00 00       	push   $0xbf3c
    1873:	6a 01                	push   $0x1
    1875:	e8 ed a2 00 00       	call   bb67 <printf>
    187a:	83 c3 01             	add    $0x1,%ebx
    187d:	83 c4 10             	add    $0x10,%esp
    1880:	eb 05                	jmp    1887 <test_reading_cgroup_files+0x39>
    1882:	bb 00 00 00 00       	mov    $0x0,%ebx
    1887:	83 ec 0c             	sub    $0xc,%esp
    188a:	68 ac d6 00 00       	push   $0xd6ac
    188f:	e8 6f 9e 00 00       	call   b703 <strlen>
    1894:	89 c6                	mov    %eax,%esi
    1896:	c7 04 24 3e bf 00 00 	movl   $0xbf3e,(%esp)
    189d:	e8 61 9e 00 00       	call   b703 <strlen>
    18a2:	8d 44 06 02          	lea    0x2(%esi,%eax,1),%eax
    18a6:	83 c4 10             	add    $0x10,%esp
    18a9:	39 d8                	cmp    %ebx,%eax
    18ab:	77 be                	ja     186b <test_reading_cgroup_files+0x1d>
    18ad:	83 ec 0c             	sub    $0xc,%esp
    18b0:	68 9c 01 00 00       	push   $0x19c
    18b5:	68 f9 bf 00 00       	push   $0xbff9
    18ba:	ff 75 08             	pushl  0x8(%ebp)
    18bd:	68 d0 d6 00 00       	push   $0xd6d0
    18c2:	6a 01                	push   $0x1
    18c4:	e8 9e a2 00 00       	call   bb67 <printf>
    18c9:	c7 05 40 42 01 00 01 	movl   $0x1,0x14240
    18d0:	00 00 00 
    18d3:	83 c4 20             	add    $0x20,%esp
    18d6:	e9 03 09 00 00       	jmp    21de <test_reading_cgroup_files+0x990>
    ASSERT_TRUE(read_file(TEST_1_CGROUP_CONTROLLERS, 1));
    18db:	83 ec 08             	sub    $0x8,%esp
    18de:	6a 01                	push   $0x1
    18e0:	68 8c ce 00 00       	push   $0xce8c
    18e5:	e8 b2 e8 ff ff       	call   19c <read_file>
    18ea:	83 c4 10             	add    $0x10,%esp
    18ed:	85 c0                	test   %eax,%eax
    18ef:	75 72                	jne    1963 <test_reading_cgroup_files+0x115>
    18f1:	eb 17                	jmp    190a <test_reading_cgroup_files+0xbc>
    18f3:	83 ec 08             	sub    $0x8,%esp
    18f6:	68 3c bf 00 00       	push   $0xbf3c
    18fb:	6a 01                	push   $0x1
    18fd:	e8 65 a2 00 00       	call   bb67 <printf>
    1902:	83 c3 01             	add    $0x1,%ebx
    1905:	83 c4 10             	add    $0x10,%esp
    1908:	eb 05                	jmp    190f <test_reading_cgroup_files+0xc1>
    190a:	bb 00 00 00 00       	mov    $0x0,%ebx
    190f:	83 ec 0c             	sub    $0xc,%esp
    1912:	68 1c d7 00 00       	push   $0xd71c
    1917:	e8 e7 9d 00 00       	call   b703 <strlen>
    191c:	89 c6                	mov    %eax,%esi
    191e:	c7 04 24 3e bf 00 00 	movl   $0xbf3e,(%esp)
    1925:	e8 d9 9d 00 00       	call   b703 <strlen>
    192a:	8d 44 06 02          	lea    0x2(%esi,%eax,1),%eax
    192e:	83 c4 10             	add    $0x10,%esp
    1931:	39 d8                	cmp    %ebx,%eax
    1933:	77 be                	ja     18f3 <test_reading_cgroup_files+0xa5>
    1935:	83 ec 0c             	sub    $0xc,%esp
    1938:	68 9d 01 00 00       	push   $0x19d
    193d:	68 f9 bf 00 00       	push   $0xbff9
    1942:	ff 75 08             	pushl  0x8(%ebp)
    1945:	68 44 d7 00 00       	push   $0xd744
    194a:	6a 01                	push   $0x1
    194c:	e8 16 a2 00 00       	call   bb67 <printf>
    1951:	c7 05 40 42 01 00 01 	movl   $0x1,0x14240
    1958:	00 00 00 
    195b:	83 c4 20             	add    $0x20,%esp
    195e:	e9 7b 08 00 00       	jmp    21de <test_reading_cgroup_files+0x990>
    ASSERT_TRUE(read_file(TEST_1_CGROUP_SUBTREE_CONTROL, 1));
    1963:	83 ec 08             	sub    $0x8,%esp
    1966:	6a 01                	push   $0x1
    1968:	68 88 ca 00 00       	push   $0xca88
    196d:	e8 2a e8 ff ff       	call   19c <read_file>
    1972:	83 c4 10             	add    $0x10,%esp
    1975:	85 c0                	test   %eax,%eax
    1977:	75 72                	jne    19eb <test_reading_cgroup_files+0x19d>
    1979:	eb 17                	jmp    1992 <test_reading_cgroup_files+0x144>
    197b:	83 ec 08             	sub    $0x8,%esp
    197e:	68 3c bf 00 00       	push   $0xbf3c
    1983:	6a 01                	push   $0x1
    1985:	e8 dd a1 00 00       	call   bb67 <printf>
    198a:	83 c3 01             	add    $0x1,%ebx
    198d:	83 c4 10             	add    $0x10,%esp
    1990:	eb 05                	jmp    1997 <test_reading_cgroup_files+0x149>
    1992:	bb 00 00 00 00       	mov    $0x0,%ebx
    1997:	83 ec 0c             	sub    $0xc,%esp
    199a:	68 98 d7 00 00       	push   $0xd798
    199f:	e8 5f 9d 00 00       	call   b703 <strlen>
    19a4:	89 c6                	mov    %eax,%esi
    19a6:	c7 04 24 3e bf 00 00 	movl   $0xbf3e,(%esp)
    19ad:	e8 51 9d 00 00       	call   b703 <strlen>
    19b2:	8d 44 06 02          	lea    0x2(%esi,%eax,1),%eax
    19b6:	83 c4 10             	add    $0x10,%esp
    19b9:	39 d8                	cmp    %ebx,%eax
    19bb:	77 be                	ja     197b <test_reading_cgroup_files+0x12d>
    19bd:	83 ec 0c             	sub    $0xc,%esp
    19c0:	68 9e 01 00 00       	push   $0x19e
    19c5:	68 f9 bf 00 00       	push   $0xbff9
    19ca:	ff 75 08             	pushl  0x8(%ebp)
    19cd:	68 c4 d7 00 00       	push   $0xd7c4
    19d2:	6a 01                	push   $0x1
    19d4:	e8 8e a1 00 00       	call   bb67 <printf>
    19d9:	c7 05 40 42 01 00 01 	movl   $0x1,0x14240
    19e0:	00 00 00 
    19e3:	83 c4 20             	add    $0x20,%esp
    19e6:	e9 f3 07 00 00       	jmp    21de <test_reading_cgroup_files+0x990>
    ASSERT_TRUE(read_file(TEST_1_CGROUP_EVENTS, 1));
    19eb:	83 ec 08             	sub    $0x8,%esp
    19ee:	6a 01                	push   $0x1
    19f0:	68 21 c1 00 00       	push   $0xc121
    19f5:	e8 a2 e7 ff ff       	call   19c <read_file>
    19fa:	83 c4 10             	add    $0x10,%esp
    19fd:	85 c0                	test   %eax,%eax
    19ff:	75 72                	jne    1a73 <test_reading_cgroup_files+0x225>
    1a01:	eb 17                	jmp    1a1a <test_reading_cgroup_files+0x1cc>
    1a03:	83 ec 08             	sub    $0x8,%esp
    1a06:	68 3c bf 00 00       	push   $0xbf3c
    1a0b:	6a 01                	push   $0x1
    1a0d:	e8 55 a1 00 00       	call   bb67 <printf>
    1a12:	83 c3 01             	add    $0x1,%ebx
    1a15:	83 c4 10             	add    $0x10,%esp
    1a18:	eb 05                	jmp    1a1f <test_reading_cgroup_files+0x1d1>
    1a1a:	bb 00 00 00 00       	mov    $0x0,%ebx
    1a1f:	83 ec 0c             	sub    $0xc,%esp
    1a22:	68 1c d8 00 00       	push   $0xd81c
    1a27:	e8 d7 9c 00 00       	call   b703 <strlen>
    1a2c:	89 c6                	mov    %eax,%esi
    1a2e:	c7 04 24 3e bf 00 00 	movl   $0xbf3e,(%esp)
    1a35:	e8 c9 9c 00 00       	call   b703 <strlen>
    1a3a:	8d 44 06 02          	lea    0x2(%esi,%eax,1),%eax
    1a3e:	83 c4 10             	add    $0x10,%esp
    1a41:	39 d8                	cmp    %ebx,%eax
    1a43:	77 be                	ja     1a03 <test_reading_cgroup_files+0x1b5>
    1a45:	83 ec 0c             	sub    $0xc,%esp
    1a48:	68 9f 01 00 00       	push   $0x19f
    1a4d:	68 f9 bf 00 00       	push   $0xbff9
    1a52:	ff 75 08             	pushl  0x8(%ebp)
    1a55:	68 40 d8 00 00       	push   $0xd840
    1a5a:	6a 01                	push   $0x1
    1a5c:	e8 06 a1 00 00       	call   bb67 <printf>
    1a61:	c7 05 40 42 01 00 01 	movl   $0x1,0x14240
    1a68:	00 00 00 
    1a6b:	83 c4 20             	add    $0x20,%esp
    1a6e:	e9 6b 07 00 00       	jmp    21de <test_reading_cgroup_files+0x990>
    ASSERT_TRUE(read_file(TEST_1_CGROUP_DESCENDANTS, 1));
    1a73:	83 ec 08             	sub    $0x8,%esp
    1a76:	6a 01                	push   $0x1
    1a78:	68 30 d0 00 00       	push   $0xd030
    1a7d:	e8 1a e7 ff ff       	call   19c <read_file>
    1a82:	83 c4 10             	add    $0x10,%esp
    1a85:	85 c0                	test   %eax,%eax
    1a87:	75 72                	jne    1afb <test_reading_cgroup_files+0x2ad>
    1a89:	eb 17                	jmp    1aa2 <test_reading_cgroup_files+0x254>
    1a8b:	83 ec 08             	sub    $0x8,%esp
    1a8e:	68 3c bf 00 00       	push   $0xbf3c
    1a93:	6a 01                	push   $0x1
    1a95:	e8 cd a0 00 00       	call   bb67 <printf>
    1a9a:	83 c3 01             	add    $0x1,%ebx
    1a9d:	83 c4 10             	add    $0x10,%esp
    1aa0:	eb 05                	jmp    1aa7 <test_reading_cgroup_files+0x259>
    1aa2:	bb 00 00 00 00       	mov    $0x0,%ebx
    1aa7:	83 ec 0c             	sub    $0xc,%esp
    1aaa:	68 8c d8 00 00       	push   $0xd88c
    1aaf:	e8 4f 9c 00 00       	call   b703 <strlen>
    1ab4:	89 c6                	mov    %eax,%esi
    1ab6:	c7 04 24 3e bf 00 00 	movl   $0xbf3e,(%esp)
    1abd:	e8 41 9c 00 00       	call   b703 <strlen>
    1ac2:	8d 44 06 02          	lea    0x2(%esi,%eax,1),%eax
    1ac6:	83 c4 10             	add    $0x10,%esp
    1ac9:	39 d8                	cmp    %ebx,%eax
    1acb:	77 be                	ja     1a8b <test_reading_cgroup_files+0x23d>
    1acd:	83 ec 0c             	sub    $0xc,%esp
    1ad0:	68 a0 01 00 00       	push   $0x1a0
    1ad5:	68 f9 bf 00 00       	push   $0xbff9
    1ada:	ff 75 08             	pushl  0x8(%ebp)
    1add:	68 b4 d8 00 00       	push   $0xd8b4
    1ae2:	6a 01                	push   $0x1
    1ae4:	e8 7e a0 00 00       	call   bb67 <printf>
    1ae9:	c7 05 40 42 01 00 01 	movl   $0x1,0x14240
    1af0:	00 00 00 
    1af3:	83 c4 20             	add    $0x20,%esp
    1af6:	e9 e3 06 00 00       	jmp    21de <test_reading_cgroup_files+0x990>
    ASSERT_TRUE(read_file(TEST_1_CGROUP_MAX_DEPTH, 1));
    1afb:	83 ec 08             	sub    $0x8,%esp
    1afe:	6a 01                	push   $0x1
    1b00:	68 d8 d0 00 00       	push   $0xd0d8
    1b05:	e8 92 e6 ff ff       	call   19c <read_file>
    1b0a:	83 c4 10             	add    $0x10,%esp
    1b0d:	85 c0                	test   %eax,%eax
    1b0f:	75 72                	jne    1b83 <test_reading_cgroup_files+0x335>
    1b11:	eb 17                	jmp    1b2a <test_reading_cgroup_files+0x2dc>
    1b13:	83 ec 08             	sub    $0x8,%esp
    1b16:	68 3c bf 00 00       	push   $0xbf3c
    1b1b:	6a 01                	push   $0x1
    1b1d:	e8 45 a0 00 00       	call   bb67 <printf>
    1b22:	83 c3 01             	add    $0x1,%ebx
    1b25:	83 c4 10             	add    $0x10,%esp
    1b28:	eb 05                	jmp    1b2f <test_reading_cgroup_files+0x2e1>
    1b2a:	bb 00 00 00 00       	mov    $0x0,%ebx
    1b2f:	83 ec 0c             	sub    $0xc,%esp
    1b32:	68 08 d9 00 00       	push   $0xd908
    1b37:	e8 c7 9b 00 00       	call   b703 <strlen>
    1b3c:	89 c6                	mov    %eax,%esi
    1b3e:	c7 04 24 3e bf 00 00 	movl   $0xbf3e,(%esp)
    1b45:	e8 b9 9b 00 00       	call   b703 <strlen>
    1b4a:	8d 44 06 02          	lea    0x2(%esi,%eax,1),%eax
    1b4e:	83 c4 10             	add    $0x10,%esp
    1b51:	39 d8                	cmp    %ebx,%eax
    1b53:	77 be                	ja     1b13 <test_reading_cgroup_files+0x2c5>
    1b55:	83 ec 0c             	sub    $0xc,%esp
    1b58:	68 a1 01 00 00       	push   $0x1a1
    1b5d:	68 f9 bf 00 00       	push   $0xbff9
    1b62:	ff 75 08             	pushl  0x8(%ebp)
    1b65:	68 30 d9 00 00       	push   $0xd930
    1b6a:	6a 01                	push   $0x1
    1b6c:	e8 f6 9f 00 00       	call   bb67 <printf>
    1b71:	c7 05 40 42 01 00 01 	movl   $0x1,0x14240
    1b78:	00 00 00 
    1b7b:	83 c4 20             	add    $0x20,%esp
    1b7e:	e9 5b 06 00 00       	jmp    21de <test_reading_cgroup_files+0x990>
    ASSERT_TRUE(read_file(TEST_1_CGROUP_STAT, 1));
    1b83:	83 ec 08             	sub    $0x8,%esp
    1b86:	6a 01                	push   $0x1
    1b88:	68 3d c1 00 00       	push   $0xc13d
    1b8d:	e8 0a e6 ff ff       	call   19c <read_file>
    1b92:	83 c4 10             	add    $0x10,%esp
    1b95:	85 c0                	test   %eax,%eax
    1b97:	75 72                	jne    1c0b <test_reading_cgroup_files+0x3bd>
    1b99:	eb 17                	jmp    1bb2 <test_reading_cgroup_files+0x364>
    1b9b:	83 ec 08             	sub    $0x8,%esp
    1b9e:	68 3c bf 00 00       	push   $0xbf3c
    1ba3:	6a 01                	push   $0x1
    1ba5:	e8 bd 9f 00 00       	call   bb67 <printf>
    1baa:	83 c3 01             	add    $0x1,%ebx
    1bad:	83 c4 10             	add    $0x10,%esp
    1bb0:	eb 05                	jmp    1bb7 <test_reading_cgroup_files+0x369>
    1bb2:	bb 00 00 00 00       	mov    $0x0,%ebx
    1bb7:	83 ec 0c             	sub    $0xc,%esp
    1bba:	68 80 d9 00 00       	push   $0xd980
    1bbf:	e8 3f 9b 00 00       	call   b703 <strlen>
    1bc4:	89 c6                	mov    %eax,%esi
    1bc6:	c7 04 24 3e bf 00 00 	movl   $0xbf3e,(%esp)
    1bcd:	e8 31 9b 00 00       	call   b703 <strlen>
    1bd2:	8d 44 06 02          	lea    0x2(%esi,%eax,1),%eax
    1bd6:	83 c4 10             	add    $0x10,%esp
    1bd9:	39 d8                	cmp    %ebx,%eax
    1bdb:	77 be                	ja     1b9b <test_reading_cgroup_files+0x34d>
    1bdd:	83 ec 0c             	sub    $0xc,%esp
    1be0:	68 a2 01 00 00       	push   $0x1a2
    1be5:	68 f9 bf 00 00       	push   $0xbff9
    1bea:	ff 75 08             	pushl  0x8(%ebp)
    1bed:	68 a4 d9 00 00       	push   $0xd9a4
    1bf2:	6a 01                	push   $0x1
    1bf4:	e8 6e 9f 00 00       	call   bb67 <printf>
    1bf9:	c7 05 40 42 01 00 01 	movl   $0x1,0x14240
    1c00:	00 00 00 
    1c03:	83 c4 20             	add    $0x20,%esp
    1c06:	e9 d3 05 00 00       	jmp    21de <test_reading_cgroup_files+0x990>
    ASSERT_TRUE(read_file(TEST_1_CPU_MAX, 1));
    1c0b:	83 ec 08             	sub    $0x8,%esp
    1c0e:	6a 01                	push   $0x1
    1c10:	68 57 c1 00 00       	push   $0xc157
    1c15:	e8 82 e5 ff ff       	call   19c <read_file>
    1c1a:	83 c4 10             	add    $0x10,%esp
    1c1d:	85 c0                	test   %eax,%eax
    1c1f:	75 72                	jne    1c93 <test_reading_cgroup_files+0x445>
    1c21:	eb 17                	jmp    1c3a <test_reading_cgroup_files+0x3ec>
    1c23:	83 ec 08             	sub    $0x8,%esp
    1c26:	68 3c bf 00 00       	push   $0xbf3c
    1c2b:	6a 01                	push   $0x1
    1c2d:	e8 35 9f 00 00       	call   bb67 <printf>
    1c32:	83 c3 01             	add    $0x1,%ebx
    1c35:	83 c4 10             	add    $0x10,%esp
    1c38:	eb 05                	jmp    1c3f <test_reading_cgroup_files+0x3f1>
    1c3a:	bb 00 00 00 00       	mov    $0x0,%ebx
    1c3f:	83 ec 0c             	sub    $0xc,%esp
    1c42:	68 6c c2 00 00       	push   $0xc26c
    1c47:	e8 b7 9a 00 00       	call   b703 <strlen>
    1c4c:	89 c6                	mov    %eax,%esi
    1c4e:	c7 04 24 3e bf 00 00 	movl   $0xbf3e,(%esp)
    1c55:	e8 a9 9a 00 00       	call   b703 <strlen>
    1c5a:	8d 44 06 02          	lea    0x2(%esi,%eax,1),%eax
    1c5e:	83 c4 10             	add    $0x10,%esp
    1c61:	39 d8                	cmp    %ebx,%eax
    1c63:	77 be                	ja     1c23 <test_reading_cgroup_files+0x3d5>
    1c65:	83 ec 0c             	sub    $0xc,%esp
    1c68:	68 a3 01 00 00       	push   $0x1a3
    1c6d:	68 f9 bf 00 00       	push   $0xbff9
    1c72:	ff 75 08             	pushl  0x8(%ebp)
    1c75:	68 f0 d9 00 00       	push   $0xd9f0
    1c7a:	6a 01                	push   $0x1
    1c7c:	e8 e6 9e 00 00       	call   bb67 <printf>
    1c81:	c7 05 40 42 01 00 01 	movl   $0x1,0x14240
    1c88:	00 00 00 
    1c8b:	83 c4 20             	add    $0x20,%esp
    1c8e:	e9 4b 05 00 00       	jmp    21de <test_reading_cgroup_files+0x990>
    ASSERT_TRUE(read_file(TEST_1_CPU_WEIGHT, 1));
    1c93:	83 ec 08             	sub    $0x8,%esp
    1c96:	6a 01                	push   $0x1
    1c98:	68 6d c1 00 00       	push   $0xc16d
    1c9d:	e8 fa e4 ff ff       	call   19c <read_file>
    1ca2:	83 c4 10             	add    $0x10,%esp
    1ca5:	85 c0                	test   %eax,%eax
    1ca7:	75 72                	jne    1d1b <test_reading_cgroup_files+0x4cd>
    1ca9:	eb 17                	jmp    1cc2 <test_reading_cgroup_files+0x474>
    1cab:	83 ec 08             	sub    $0x8,%esp
    1cae:	68 3c bf 00 00       	push   $0xbf3c
    1cb3:	6a 01                	push   $0x1
    1cb5:	e8 ad 9e 00 00       	call   bb67 <printf>
    1cba:	83 c3 01             	add    $0x1,%ebx
    1cbd:	83 c4 10             	add    $0x10,%esp
    1cc0:	eb 05                	jmp    1cc7 <test_reading_cgroup_files+0x479>
    1cc2:	bb 00 00 00 00       	mov    $0x0,%ebx
    1cc7:	83 ec 0c             	sub    $0xc,%esp
    1cca:	68 38 da 00 00       	push   $0xda38
    1ccf:	e8 2f 9a 00 00       	call   b703 <strlen>
    1cd4:	89 c6                	mov    %eax,%esi
    1cd6:	c7 04 24 3e bf 00 00 	movl   $0xbf3e,(%esp)
    1cdd:	e8 21 9a 00 00       	call   b703 <strlen>
    1ce2:	8d 44 06 02          	lea    0x2(%esi,%eax,1),%eax
    1ce6:	83 c4 10             	add    $0x10,%esp
    1ce9:	39 d8                	cmp    %ebx,%eax
    1ceb:	77 be                	ja     1cab <test_reading_cgroup_files+0x45d>
    1ced:	83 ec 0c             	sub    $0xc,%esp
    1cf0:	68 a4 01 00 00       	push   $0x1a4
    1cf5:	68 f9 bf 00 00       	push   $0xbff9
    1cfa:	ff 75 08             	pushl  0x8(%ebp)
    1cfd:	68 58 da 00 00       	push   $0xda58
    1d02:	6a 01                	push   $0x1
    1d04:	e8 5e 9e 00 00       	call   bb67 <printf>
    1d09:	c7 05 40 42 01 00 01 	movl   $0x1,0x14240
    1d10:	00 00 00 
    1d13:	83 c4 20             	add    $0x20,%esp
    1d16:	e9 c3 04 00 00       	jmp    21de <test_reading_cgroup_files+0x990>
    ASSERT_TRUE(read_file(TEST_1_CPU_STAT, 1));
    1d1b:	83 ec 08             	sub    $0x8,%esp
    1d1e:	6a 01                	push   $0x1
    1d20:	68 86 c1 00 00       	push   $0xc186
    1d25:	e8 72 e4 ff ff       	call   19c <read_file>
    1d2a:	83 c4 10             	add    $0x10,%esp
    1d2d:	85 c0                	test   %eax,%eax
    1d2f:	75 72                	jne    1da3 <test_reading_cgroup_files+0x555>
    1d31:	eb 17                	jmp    1d4a <test_reading_cgroup_files+0x4fc>
    1d33:	83 ec 08             	sub    $0x8,%esp
    1d36:	68 3c bf 00 00       	push   $0xbf3c
    1d3b:	6a 01                	push   $0x1
    1d3d:	e8 25 9e 00 00       	call   bb67 <printf>
    1d42:	83 c3 01             	add    $0x1,%ebx
    1d45:	83 c4 10             	add    $0x10,%esp
    1d48:	eb 05                	jmp    1d4f <test_reading_cgroup_files+0x501>
    1d4a:	bb 00 00 00 00       	mov    $0x0,%ebx
    1d4f:	83 ec 0c             	sub    $0xc,%esp
    1d52:	68 89 c2 00 00       	push   $0xc289
    1d57:	e8 a7 99 00 00       	call   b703 <strlen>
    1d5c:	89 c6                	mov    %eax,%esi
    1d5e:	c7 04 24 3e bf 00 00 	movl   $0xbf3e,(%esp)
    1d65:	e8 99 99 00 00       	call   b703 <strlen>
    1d6a:	8d 44 06 02          	lea    0x2(%esi,%eax,1),%eax
    1d6e:	83 c4 10             	add    $0x10,%esp
    1d71:	39 d8                	cmp    %ebx,%eax
    1d73:	77 be                	ja     1d33 <test_reading_cgroup_files+0x4e5>
    1d75:	83 ec 0c             	sub    $0xc,%esp
    1d78:	68 a5 01 00 00       	push   $0x1a5
    1d7d:	68 f9 bf 00 00       	push   $0xbff9
    1d82:	ff 75 08             	pushl  0x8(%ebp)
    1d85:	68 a4 da 00 00       	push   $0xdaa4
    1d8a:	6a 01                	push   $0x1
    1d8c:	e8 d6 9d 00 00       	call   bb67 <printf>
    1d91:	c7 05 40 42 01 00 01 	movl   $0x1,0x14240
    1d98:	00 00 00 
    1d9b:	83 c4 20             	add    $0x20,%esp
    1d9e:	e9 3b 04 00 00       	jmp    21de <test_reading_cgroup_files+0x990>
    ASSERT_TRUE(read_file(TEST_1_PID_MAX, 1));
    1da3:	83 ec 08             	sub    $0x8,%esp
    1da6:	6a 01                	push   $0x1
    1da8:	68 9d c1 00 00       	push   $0xc19d
    1dad:	e8 ea e3 ff ff       	call   19c <read_file>
    1db2:	83 c4 10             	add    $0x10,%esp
    1db5:	85 c0                	test   %eax,%eax
    1db7:	75 72                	jne    1e2b <test_reading_cgroup_files+0x5dd>
    1db9:	eb 17                	jmp    1dd2 <test_reading_cgroup_files+0x584>
    1dbb:	83 ec 08             	sub    $0x8,%esp
    1dbe:	68 3c bf 00 00       	push   $0xbf3c
    1dc3:	6a 01                	push   $0x1
    1dc5:	e8 9d 9d 00 00       	call   bb67 <printf>
    1dca:	83 c3 01             	add    $0x1,%ebx
    1dcd:	83 c4 10             	add    $0x10,%esp
    1dd0:	eb 05                	jmp    1dd7 <test_reading_cgroup_files+0x589>
    1dd2:	bb 00 00 00 00       	mov    $0x0,%ebx
    1dd7:	83 ec 0c             	sub    $0xc,%esp
    1dda:	68 a7 c2 00 00       	push   $0xc2a7
    1ddf:	e8 1f 99 00 00       	call   b703 <strlen>
    1de4:	89 c6                	mov    %eax,%esi
    1de6:	c7 04 24 3e bf 00 00 	movl   $0xbf3e,(%esp)
    1ded:	e8 11 99 00 00       	call   b703 <strlen>
    1df2:	8d 44 06 02          	lea    0x2(%esi,%eax,1),%eax
    1df6:	83 c4 10             	add    $0x10,%esp
    1df9:	39 d8                	cmp    %ebx,%eax
    1dfb:	77 be                	ja     1dbb <test_reading_cgroup_files+0x56d>
    1dfd:	83 ec 0c             	sub    $0xc,%esp
    1e00:	68 a6 01 00 00       	push   $0x1a6
    1e05:	68 f9 bf 00 00       	push   $0xbff9
    1e0a:	ff 75 08             	pushl  0x8(%ebp)
    1e0d:	68 ec da 00 00       	push   $0xdaec
    1e12:	6a 01                	push   $0x1
    1e14:	e8 4e 9d 00 00       	call   bb67 <printf>
    1e19:	c7 05 40 42 01 00 01 	movl   $0x1,0x14240
    1e20:	00 00 00 
    1e23:	83 c4 20             	add    $0x20,%esp
    1e26:	e9 b3 03 00 00       	jmp    21de <test_reading_cgroup_files+0x990>
    ASSERT_TRUE(read_file(TEST_1_PID_CURRENT, 1));
    1e2b:	83 ec 08             	sub    $0x8,%esp
    1e2e:	6a 01                	push   $0x1
    1e30:	68 b3 c1 00 00       	push   $0xc1b3
    1e35:	e8 62 e3 ff ff       	call   19c <read_file>
    1e3a:	83 c4 10             	add    $0x10,%esp
    1e3d:	85 c0                	test   %eax,%eax
    1e3f:	75 72                	jne    1eb3 <test_reading_cgroup_files+0x665>
    1e41:	eb 17                	jmp    1e5a <test_reading_cgroup_files+0x60c>
    1e43:	83 ec 08             	sub    $0x8,%esp
    1e46:	68 3c bf 00 00       	push   $0xbf3c
    1e4b:	6a 01                	push   $0x1
    1e4d:	e8 15 9d 00 00       	call   bb67 <printf>
    1e52:	83 c3 01             	add    $0x1,%ebx
    1e55:	83 c4 10             	add    $0x10,%esp
    1e58:	eb 05                	jmp    1e5f <test_reading_cgroup_files+0x611>
    1e5a:	bb 00 00 00 00       	mov    $0x0,%ebx
    1e5f:	83 ec 0c             	sub    $0xc,%esp
    1e62:	68 34 db 00 00       	push   $0xdb34
    1e67:	e8 97 98 00 00       	call   b703 <strlen>
    1e6c:	89 c6                	mov    %eax,%esi
    1e6e:	c7 04 24 3e bf 00 00 	movl   $0xbf3e,(%esp)
    1e75:	e8 89 98 00 00       	call   b703 <strlen>
    1e7a:	8d 44 06 02          	lea    0x2(%esi,%eax,1),%eax
    1e7e:	83 c4 10             	add    $0x10,%esp
    1e81:	39 d8                	cmp    %ebx,%eax
    1e83:	77 be                	ja     1e43 <test_reading_cgroup_files+0x5f5>
    1e85:	83 ec 0c             	sub    $0xc,%esp
    1e88:	68 a7 01 00 00       	push   $0x1a7
    1e8d:	68 f9 bf 00 00       	push   $0xbff9
    1e92:	ff 75 08             	pushl  0x8(%ebp)
    1e95:	68 58 db 00 00       	push   $0xdb58
    1e9a:	6a 01                	push   $0x1
    1e9c:	e8 c6 9c 00 00       	call   bb67 <printf>
    1ea1:	c7 05 40 42 01 00 01 	movl   $0x1,0x14240
    1ea8:	00 00 00 
    1eab:	83 c4 20             	add    $0x20,%esp
    1eae:	e9 2b 03 00 00       	jmp    21de <test_reading_cgroup_files+0x990>
    ASSERT_TRUE(read_file(TEST_1_SET_CPU, 1));
    1eb3:	83 ec 08             	sub    $0x8,%esp
    1eb6:	6a 01                	push   $0x1
    1eb8:	68 cd c1 00 00       	push   $0xc1cd
    1ebd:	e8 da e2 ff ff       	call   19c <read_file>
    1ec2:	83 c4 10             	add    $0x10,%esp
    1ec5:	85 c0                	test   %eax,%eax
    1ec7:	75 72                	jne    1f3b <test_reading_cgroup_files+0x6ed>
    1ec9:	eb 17                	jmp    1ee2 <test_reading_cgroup_files+0x694>
    1ecb:	83 ec 08             	sub    $0x8,%esp
    1ece:	68 3c bf 00 00       	push   $0xbf3c
    1ed3:	6a 01                	push   $0x1
    1ed5:	e8 8d 9c 00 00       	call   bb67 <printf>
    1eda:	83 c3 01             	add    $0x1,%ebx
    1edd:	83 c4 10             	add    $0x10,%esp
    1ee0:	eb 05                	jmp    1ee7 <test_reading_cgroup_files+0x699>
    1ee2:	bb 00 00 00 00       	mov    $0x0,%ebx
    1ee7:	83 ec 0c             	sub    $0xc,%esp
    1eea:	68 c4 c2 00 00       	push   $0xc2c4
    1eef:	e8 0f 98 00 00       	call   b703 <strlen>
    1ef4:	89 c6                	mov    %eax,%esi
    1ef6:	c7 04 24 3e bf 00 00 	movl   $0xbf3e,(%esp)
    1efd:	e8 01 98 00 00       	call   b703 <strlen>
    1f02:	8d 44 06 02          	lea    0x2(%esi,%eax,1),%eax
    1f06:	83 c4 10             	add    $0x10,%esp
    1f09:	39 d8                	cmp    %ebx,%eax
    1f0b:	77 be                	ja     1ecb <test_reading_cgroup_files+0x67d>
    1f0d:	83 ec 0c             	sub    $0xc,%esp
    1f10:	68 a8 01 00 00       	push   $0x1a8
    1f15:	68 f9 bf 00 00       	push   $0xbff9
    1f1a:	ff 75 08             	pushl  0x8(%ebp)
    1f1d:	68 a4 db 00 00       	push   $0xdba4
    1f22:	6a 01                	push   $0x1
    1f24:	e8 3e 9c 00 00       	call   bb67 <printf>
    1f29:	c7 05 40 42 01 00 01 	movl   $0x1,0x14240
    1f30:	00 00 00 
    1f33:	83 c4 20             	add    $0x20,%esp
    1f36:	e9 a3 02 00 00       	jmp    21de <test_reading_cgroup_files+0x990>
    ASSERT_TRUE(read_file(TEST_1_SET_FRZ, 1));
    1f3b:	83 ec 08             	sub    $0x8,%esp
    1f3e:	6a 01                	push   $0x1
    1f40:	68 e7 c1 00 00       	push   $0xc1e7
    1f45:	e8 52 e2 ff ff       	call   19c <read_file>
    1f4a:	83 c4 10             	add    $0x10,%esp
    1f4d:	85 c0                	test   %eax,%eax
    1f4f:	75 72                	jne    1fc3 <test_reading_cgroup_files+0x775>
    1f51:	eb 17                	jmp    1f6a <test_reading_cgroup_files+0x71c>
    1f53:	83 ec 08             	sub    $0x8,%esp
    1f56:	68 3c bf 00 00       	push   $0xbf3c
    1f5b:	6a 01                	push   $0x1
    1f5d:	e8 05 9c 00 00       	call   bb67 <printf>
    1f62:	83 c3 01             	add    $0x1,%ebx
    1f65:	83 c4 10             	add    $0x10,%esp
    1f68:	eb 05                	jmp    1f6f <test_reading_cgroup_files+0x721>
    1f6a:	bb 00 00 00 00       	mov    $0x0,%ebx
    1f6f:	83 ec 0c             	sub    $0xc,%esp
    1f72:	68 e1 c2 00 00       	push   $0xc2e1
    1f77:	e8 87 97 00 00       	call   b703 <strlen>
    1f7c:	89 c6                	mov    %eax,%esi
    1f7e:	c7 04 24 3e bf 00 00 	movl   $0xbf3e,(%esp)
    1f85:	e8 79 97 00 00       	call   b703 <strlen>
    1f8a:	8d 44 06 02          	lea    0x2(%esi,%eax,1),%eax
    1f8e:	83 c4 10             	add    $0x10,%esp
    1f91:	39 d8                	cmp    %ebx,%eax
    1f93:	77 be                	ja     1f53 <test_reading_cgroup_files+0x705>
    1f95:	83 ec 0c             	sub    $0xc,%esp
    1f98:	68 a9 01 00 00       	push   $0x1a9
    1f9d:	68 f9 bf 00 00       	push   $0xbff9
    1fa2:	ff 75 08             	pushl  0x8(%ebp)
    1fa5:	68 ec db 00 00       	push   $0xdbec
    1faa:	6a 01                	push   $0x1
    1fac:	e8 b6 9b 00 00       	call   bb67 <printf>
    1fb1:	c7 05 40 42 01 00 01 	movl   $0x1,0x14240
    1fb8:	00 00 00 
    1fbb:	83 c4 20             	add    $0x20,%esp
    1fbe:	e9 1b 02 00 00       	jmp    21de <test_reading_cgroup_files+0x990>
    ASSERT_TRUE(read_file(TEST_1_MEM_CURRENT, 1));
    1fc3:	83 ec 08             	sub    $0x8,%esp
    1fc6:	6a 01                	push   $0x1
    1fc8:	68 03 c2 00 00       	push   $0xc203
    1fcd:	e8 ca e1 ff ff       	call   19c <read_file>
    1fd2:	83 c4 10             	add    $0x10,%esp
    1fd5:	85 c0                	test   %eax,%eax
    1fd7:	75 72                	jne    204b <test_reading_cgroup_files+0x7fd>
    1fd9:	eb 17                	jmp    1ff2 <test_reading_cgroup_files+0x7a4>
    1fdb:	83 ec 08             	sub    $0x8,%esp
    1fde:	68 3c bf 00 00       	push   $0xbf3c
    1fe3:	6a 01                	push   $0x1
    1fe5:	e8 7d 9b 00 00       	call   bb67 <printf>
    1fea:	83 c3 01             	add    $0x1,%ebx
    1fed:	83 c4 10             	add    $0x10,%esp
    1ff0:	eb 05                	jmp    1ff7 <test_reading_cgroup_files+0x7a9>
    1ff2:	bb 00 00 00 00       	mov    $0x0,%ebx
    1ff7:	83 ec 0c             	sub    $0xc,%esp
    1ffa:	68 34 dc 00 00       	push   $0xdc34
    1fff:	e8 ff 96 00 00       	call   b703 <strlen>
    2004:	89 c6                	mov    %eax,%esi
    2006:	c7 04 24 3e bf 00 00 	movl   $0xbf3e,(%esp)
    200d:	e8 f1 96 00 00       	call   b703 <strlen>
    2012:	8d 44 06 02          	lea    0x2(%esi,%eax,1),%eax
    2016:	83 c4 10             	add    $0x10,%esp
    2019:	39 d8                	cmp    %ebx,%eax
    201b:	77 be                	ja     1fdb <test_reading_cgroup_files+0x78d>
    201d:	83 ec 0c             	sub    $0xc,%esp
    2020:	68 aa 01 00 00       	push   $0x1aa
    2025:	68 f9 bf 00 00       	push   $0xbff9
    202a:	ff 75 08             	pushl  0x8(%ebp)
    202d:	68 58 dc 00 00       	push   $0xdc58
    2032:	6a 01                	push   $0x1
    2034:	e8 2e 9b 00 00       	call   bb67 <printf>
    2039:	c7 05 40 42 01 00 01 	movl   $0x1,0x14240
    2040:	00 00 00 
    2043:	83 c4 20             	add    $0x20,%esp
    2046:	e9 93 01 00 00       	jmp    21de <test_reading_cgroup_files+0x990>
    ASSERT_TRUE(read_file(TEST_1_MEM_MAX, 1));
    204b:	83 ec 08             	sub    $0x8,%esp
    204e:	6a 01                	push   $0x1
    2050:	68 20 c2 00 00       	push   $0xc220
    2055:	e8 42 e1 ff ff       	call   19c <read_file>
    205a:	83 c4 10             	add    $0x10,%esp
    205d:	85 c0                	test   %eax,%eax
    205f:	75 72                	jne    20d3 <test_reading_cgroup_files+0x885>
    2061:	eb 17                	jmp    207a <test_reading_cgroup_files+0x82c>
    2063:	83 ec 08             	sub    $0x8,%esp
    2066:	68 3c bf 00 00       	push   $0xbf3c
    206b:	6a 01                	push   $0x1
    206d:	e8 f5 9a 00 00       	call   bb67 <printf>
    2072:	83 c3 01             	add    $0x1,%ebx
    2075:	83 c4 10             	add    $0x10,%esp
    2078:	eb 05                	jmp    207f <test_reading_cgroup_files+0x831>
    207a:	bb 00 00 00 00       	mov    $0x0,%ebx
    207f:	83 ec 0c             	sub    $0xc,%esp
    2082:	68 fe c2 00 00       	push   $0xc2fe
    2087:	e8 77 96 00 00       	call   b703 <strlen>
    208c:	89 c6                	mov    %eax,%esi
    208e:	c7 04 24 3e bf 00 00 	movl   $0xbf3e,(%esp)
    2095:	e8 69 96 00 00       	call   b703 <strlen>
    209a:	8d 44 06 02          	lea    0x2(%esi,%eax,1),%eax
    209e:	83 c4 10             	add    $0x10,%esp
    20a1:	39 d8                	cmp    %ebx,%eax
    20a3:	77 be                	ja     2063 <test_reading_cgroup_files+0x815>
    20a5:	83 ec 0c             	sub    $0xc,%esp
    20a8:	68 ab 01 00 00       	push   $0x1ab
    20ad:	68 f9 bf 00 00       	push   $0xbff9
    20b2:	ff 75 08             	pushl  0x8(%ebp)
    20b5:	68 a4 dc 00 00       	push   $0xdca4
    20ba:	6a 01                	push   $0x1
    20bc:	e8 a6 9a 00 00       	call   bb67 <printf>
    20c1:	c7 05 40 42 01 00 01 	movl   $0x1,0x14240
    20c8:	00 00 00 
    20cb:	83 c4 20             	add    $0x20,%esp
    20ce:	e9 0b 01 00 00       	jmp    21de <test_reading_cgroup_files+0x990>
    ASSERT_TRUE(read_file(TEST_1_MEM_MIN, 1));
    20d3:	83 ec 08             	sub    $0x8,%esp
    20d6:	6a 01                	push   $0x1
    20d8:	68 39 c2 00 00       	push   $0xc239
    20dd:	e8 ba e0 ff ff       	call   19c <read_file>
    20e2:	83 c4 10             	add    $0x10,%esp
    20e5:	85 c0                	test   %eax,%eax
    20e7:	75 72                	jne    215b <test_reading_cgroup_files+0x90d>
    20e9:	eb 17                	jmp    2102 <test_reading_cgroup_files+0x8b4>
    20eb:	83 ec 08             	sub    $0x8,%esp
    20ee:	68 3c bf 00 00       	push   $0xbf3c
    20f3:	6a 01                	push   $0x1
    20f5:	e8 6d 9a 00 00       	call   bb67 <printf>
    20fa:	83 c3 01             	add    $0x1,%ebx
    20fd:	83 c4 10             	add    $0x10,%esp
    2100:	eb 05                	jmp    2107 <test_reading_cgroup_files+0x8b9>
    2102:	bb 00 00 00 00       	mov    $0x0,%ebx
    2107:	83 ec 0c             	sub    $0xc,%esp
    210a:	68 1b c3 00 00       	push   $0xc31b
    210f:	e8 ef 95 00 00       	call   b703 <strlen>
    2114:	89 c6                	mov    %eax,%esi
    2116:	c7 04 24 3e bf 00 00 	movl   $0xbf3e,(%esp)
    211d:	e8 e1 95 00 00       	call   b703 <strlen>
    2122:	8d 44 06 02          	lea    0x2(%esi,%eax,1),%eax
    2126:	83 c4 10             	add    $0x10,%esp
    2129:	39 d8                	cmp    %ebx,%eax
    212b:	77 be                	ja     20eb <test_reading_cgroup_files+0x89d>
    212d:	83 ec 0c             	sub    $0xc,%esp
    2130:	68 ac 01 00 00       	push   $0x1ac
    2135:	68 f9 bf 00 00       	push   $0xbff9
    213a:	ff 75 08             	pushl  0x8(%ebp)
    213d:	68 ec dc 00 00       	push   $0xdcec
    2142:	6a 01                	push   $0x1
    2144:	e8 1e 9a 00 00       	call   bb67 <printf>
    2149:	c7 05 40 42 01 00 01 	movl   $0x1,0x14240
    2150:	00 00 00 
    2153:	83 c4 20             	add    $0x20,%esp
    2156:	e9 83 00 00 00       	jmp    21de <test_reading_cgroup_files+0x990>
    ASSERT_TRUE(read_file(TEST_1_MEM_STAT, 1));
    215b:	83 ec 08             	sub    $0x8,%esp
    215e:	6a 01                	push   $0x1
    2160:	68 52 c2 00 00       	push   $0xc252
    2165:	e8 32 e0 ff ff       	call   19c <read_file>
    216a:	83 c4 10             	add    $0x10,%esp
    216d:	85 c0                	test   %eax,%eax
    216f:	75 6d                	jne    21de <test_reading_cgroup_files+0x990>
    2171:	eb 17                	jmp    218a <test_reading_cgroup_files+0x93c>
    2173:	83 ec 08             	sub    $0x8,%esp
    2176:	68 3c bf 00 00       	push   $0xbf3c
    217b:	6a 01                	push   $0x1
    217d:	e8 e5 99 00 00       	call   bb67 <printf>
    2182:	83 c3 01             	add    $0x1,%ebx
    2185:	83 c4 10             	add    $0x10,%esp
    2188:	eb 05                	jmp    218f <test_reading_cgroup_files+0x941>
    218a:	bb 00 00 00 00       	mov    $0x0,%ebx
    218f:	83 ec 0c             	sub    $0xc,%esp
    2192:	68 38 c3 00 00       	push   $0xc338
    2197:	e8 67 95 00 00       	call   b703 <strlen>
    219c:	89 c6                	mov    %eax,%esi
    219e:	c7 04 24 3e bf 00 00 	movl   $0xbf3e,(%esp)
    21a5:	e8 59 95 00 00       	call   b703 <strlen>
    21aa:	8d 44 06 02          	lea    0x2(%esi,%eax,1),%eax
    21ae:	83 c4 10             	add    $0x10,%esp
    21b1:	39 d8                	cmp    %ebx,%eax
    21b3:	77 be                	ja     2173 <test_reading_cgroup_files+0x925>
    21b5:	83 ec 0c             	sub    $0xc,%esp
    21b8:	68 ad 01 00 00       	push   $0x1ad
    21bd:	68 f9 bf 00 00       	push   $0xbff9
    21c2:	ff 75 08             	pushl  0x8(%ebp)
    21c5:	68 34 dd 00 00       	push   $0xdd34
    21ca:	6a 01                	push   $0x1
    21cc:	e8 96 99 00 00       	call   bb67 <printf>
    21d1:	c7 05 40 42 01 00 01 	movl   $0x1,0x14240
    21d8:	00 00 00 
    21db:	83 c4 20             	add    $0x20,%esp
}
    21de:	8d 65 f8             	lea    -0x8(%ebp),%esp
    21e1:	5b                   	pop    %ebx
    21e2:	5e                   	pop    %esi
    21e3:	5d                   	pop    %ebp
    21e4:	c3                   	ret    

000021e5 <test_enable_and_disable_controller>:

int test_enable_and_disable_controller(int controller_type)
{
    21e5:	55                   	push   %ebp
    21e6:	89 e5                	mov    %esp,%ebp
    21e8:	57                   	push   %edi
    21e9:	56                   	push   %esi
    21ea:	53                   	push   %ebx
    21eb:	83 ec 18             	sub    $0x18,%esp
    21ee:	8b 5d 08             	mov    0x8(%ebp),%ebx
    char *buf;
    int result = 1;

    // Enable given controller.
    buf = build_activate_disable_activate(controller_type);
    21f1:	53                   	push   %ebx
    21f2:	e8 5f e5 ff ff       	call   756 <build_activate_disable_activate>
    if (!buf) {
    21f7:	83 c4 10             	add    $0x10,%esp
    21fa:	85 c0                	test   %eax,%eax
    21fc:	74 5f                	je     225d <test_enable_and_disable_controller+0x78>
    21fe:	89 c6                	mov    %eax,%esi
        return 0;
    }
    result &= write_file(TEST_1_CGROUP_SUBTREE_CONTROL, buf);
    2200:	83 ec 08             	sub    $0x8,%esp
    2203:	50                   	push   %eax
    2204:	68 88 ca 00 00       	push   $0xca88
    2209:	e8 40 e0 ff ff       	call   24e <write_file>
    220e:	83 e0 01             	and    $0x1,%eax
    2211:	89 c7                	mov    %eax,%edi
    free(buf);
    2213:	89 34 24             	mov    %esi,(%esp)
    2216:	e8 a3 9a 00 00       	call   bcbe <free>


    // Check that the given controller is really enabled.
    result &= verify_controller_enabled(controller_type);
    221b:	89 1c 24             	mov    %ebx,(%esp)
    221e:	e8 e7 e1 ff ff       	call   40a <verify_controller_enabled>
    2223:	21 c7                	and    %eax,%edi

    // Disable the given controller.
    buf = build_activate_disable(controller_type);
    2225:	89 1c 24             	mov    %ebx,(%esp)
    2228:	e8 dc e5 ff ff       	call   809 <build_activate_disable>
    222d:	89 c6                	mov    %eax,%esi
    if (!buf) {
    222f:	83 c4 10             	add    $0x10,%esp
    2232:	85 c0                	test   %eax,%eax
    2234:	74 2e                	je     2264 <test_enable_and_disable_controller+0x7f>
        return 0;
    }
    result &= write_file(TEST_1_CGROUP_SUBTREE_CONTROL, buf);
    2236:	83 ec 08             	sub    $0x8,%esp
    2239:	50                   	push   %eax
    223a:	68 88 ca 00 00       	push   $0xca88
    223f:	e8 0a e0 ff ff       	call   24e <write_file>
    2244:	21 c7                	and    %eax,%edi
    free(buf);
    2246:	89 34 24             	mov    %esi,(%esp)
    2249:	e8 70 9a 00 00       	call   bcbe <free>

    // Check that the given controller is really disabled.
    result &= verify_controller_disabled(controller_type);
    224e:	89 1c 24             	mov    %ebx,(%esp)
    2251:	e8 44 e2 ff ff       	call   49a <verify_controller_disabled>

    return result;
    2256:	83 c4 10             	add    $0x10,%esp
    2259:	21 f8                	and    %edi,%eax
    225b:	eb 0c                	jmp    2269 <test_enable_and_disable_controller+0x84>
    int result = 1;

    // Enable given controller.
    buf = build_activate_disable_activate(controller_type);
    if (!buf) {
        return 0;
    225d:	b8 00 00 00 00       	mov    $0x0,%eax
    2262:	eb 05                	jmp    2269 <test_enable_and_disable_controller+0x84>
    result &= verify_controller_enabled(controller_type);

    // Disable the given controller.
    buf = build_activate_disable(controller_type);
    if (!buf) {
        return 0;
    2264:	b8 00 00 00 00       	mov    $0x0,%eax

    // Check that the given controller is really disabled.
    result &= verify_controller_disabled(controller_type);

    return result;
}
    2269:	8d 65 f4             	lea    -0xc(%ebp),%esp
    226c:	5b                   	pop    %ebx
    226d:	5e                   	pop    %esi
    226e:	5f                   	pop    %edi
    226f:	5d                   	pop    %ebp
    2270:	c3                   	ret    

00002271 <test_enable_and_disable_all_controllers>:

TEST(test_enable_and_disable_all_controllers)
{
    2271:	55                   	push   %ebp
    2272:	89 e5                	mov    %esp,%ebp
    2274:	56                   	push   %esi
    2275:	53                   	push   %ebx
    for (int i = CPU_CNT; i < CPU_CNT + CONTROLLER_COUNT; i++) {
    2276:	bb 00 00 00 00       	mov    $0x0,%ebx
    227b:	e9 82 00 00 00       	jmp    2302 <test_enable_and_disable_all_controllers+0x91>
        ASSERT_TRUE(test_enable_and_disable_controller(i));
    2280:	83 ec 0c             	sub    $0xc,%esp
    2283:	53                   	push   %ebx
    2284:	e8 5c ff ff ff       	call   21e5 <test_enable_and_disable_controller>
    2289:	83 c4 10             	add    $0x10,%esp
    228c:	85 c0                	test   %eax,%eax
    228e:	75 6f                	jne    22ff <test_enable_and_disable_all_controllers+0x8e>
    2290:	eb 17                	jmp    22a9 <test_enable_and_disable_all_controllers+0x38>
    2292:	83 ec 08             	sub    $0x8,%esp
    2295:	68 3c bf 00 00       	push   $0xbf3c
    229a:	6a 01                	push   $0x1
    229c:	e8 c6 98 00 00       	call   bb67 <printf>
    22a1:	83 c3 01             	add    $0x1,%ebx
    22a4:	83 c4 10             	add    $0x10,%esp
    22a7:	eb 05                	jmp    22ae <test_enable_and_disable_all_controllers+0x3d>
    22a9:	bb 00 00 00 00       	mov    $0x0,%ebx
    22ae:	83 ec 0c             	sub    $0xc,%esp
    22b1:	68 7c dd 00 00       	push   $0xdd7c
    22b6:	e8 48 94 00 00       	call   b703 <strlen>
    22bb:	89 c6                	mov    %eax,%esi
    22bd:	c7 04 24 3e bf 00 00 	movl   $0xbf3e,(%esp)
    22c4:	e8 3a 94 00 00       	call   b703 <strlen>
    22c9:	8d 44 06 02          	lea    0x2(%esi,%eax,1),%eax
    22cd:	83 c4 10             	add    $0x10,%esp
    22d0:	39 d8                	cmp    %ebx,%eax
    22d2:	77 be                	ja     2292 <test_enable_and_disable_all_controllers+0x21>
    22d4:	83 ec 0c             	sub    $0xc,%esp
    22d7:	68 d2 01 00 00       	push   $0x1d2
    22dc:	68 f9 bf 00 00       	push   $0xbff9
    22e1:	ff 75 08             	pushl  0x8(%ebp)
    22e4:	68 a4 dd 00 00       	push   $0xdda4
    22e9:	6a 01                	push   $0x1
    22eb:	e8 77 98 00 00       	call   bb67 <printf>
    22f0:	c7 05 40 42 01 00 01 	movl   $0x1,0x14240
    22f7:	00 00 00 
    22fa:	83 c4 20             	add    $0x20,%esp
    22fd:	eb 0c                	jmp    230b <test_enable_and_disable_all_controllers+0x9a>
    return result;
}

TEST(test_enable_and_disable_all_controllers)
{
    for (int i = CPU_CNT; i < CPU_CNT + CONTROLLER_COUNT; i++) {
    22ff:	83 c3 01             	add    $0x1,%ebx
    2302:	83 fb 03             	cmp    $0x3,%ebx
    2305:	0f 8e 75 ff ff ff    	jle    2280 <test_enable_and_disable_all_controllers+0xf>
        ASSERT_TRUE(test_enable_and_disable_controller(i));
    }
}
    230b:	8d 65 f8             	lea    -0x8(%ebp),%esp
    230e:	5b                   	pop    %ebx
    230f:	5e                   	pop    %esi
    2310:	5d                   	pop    %ebp
    2311:	c3                   	ret    

00002312 <test_limiting_cpu_max_and_period>:

TEST(test_limiting_cpu_max_and_period)
{
    2312:	55                   	push   %ebp
    2313:	89 e5                	mov    %esp,%ebp
    2315:	57                   	push   %edi
    2316:	56                   	push   %esi
    2317:	53                   	push   %ebx
    2318:	83 ec 18             	sub    $0x18,%esp
    231b:	8b 7d 08             	mov    0x8(%ebp),%edi
    // Enable cpu controller
    ASSERT_TRUE(enable_controller(CPU_CNT));
    231e:	6a 00                	push   $0x0
    2320:	e8 3b e0 ff ff       	call   360 <enable_controller>
    2325:	83 c4 10             	add    $0x10,%esp
    2328:	85 c0                	test   %eax,%eax
    232a:	74 19                	je     2345 <test_limiting_cpu_max_and_period+0x33>
    232c:	eb 6e                	jmp    239c <test_limiting_cpu_max_and_period+0x8a>
    232e:	83 ec 08             	sub    $0x8,%esp
    2331:	68 3c bf 00 00       	push   $0xbf3c
    2336:	6a 01                	push   $0x1
    2338:	e8 2a 98 00 00       	call   bb67 <printf>
    233d:	83 c3 01             	add    $0x1,%ebx
    2340:	83 c4 10             	add    $0x10,%esp
    2343:	eb 05                	jmp    234a <test_limiting_cpu_max_and_period+0x38>
    2345:	bb 00 00 00 00       	mov    $0x0,%ebx
    234a:	83 ec 0c             	sub    $0xc,%esp
    234d:	68 56 c3 00 00       	push   $0xc356
    2352:	e8 ac 93 00 00       	call   b703 <strlen>
    2357:	89 c6                	mov    %eax,%esi
    2359:	c7 04 24 3e bf 00 00 	movl   $0xbf3e,(%esp)
    2360:	e8 9e 93 00 00       	call   b703 <strlen>
    2365:	8d 44 06 02          	lea    0x2(%esi,%eax,1),%eax
    2369:	83 c4 10             	add    $0x10,%esp
    236c:	39 d8                	cmp    %ebx,%eax
    236e:	77 be                	ja     232e <test_limiting_cpu_max_and_period+0x1c>
    2370:	83 ec 0c             	sub    $0xc,%esp
    2373:	68 d9 01 00 00       	push   $0x1d9
    2378:	68 f9 bf 00 00       	push   $0xbff9
    237d:	57                   	push   %edi
    237e:	68 f4 dd 00 00       	push   $0xddf4
    2383:	6a 01                	push   $0x1
    2385:	e8 dd 97 00 00       	call   bb67 <printf>
    238a:	c7 05 40 42 01 00 01 	movl   $0x1,0x14240
    2391:	00 00 00 
    2394:	83 c4 20             	add    $0x20,%esp
    2397:	e9 b3 02 00 00       	jmp    264f <test_limiting_cpu_max_and_period+0x33d>

    // Update only max
    ASSERT_TRUE(write_file(TEST_1_CPU_MAX, "5000"));
    239c:	83 ec 08             	sub    $0x8,%esp
    239f:	68 71 c3 00 00       	push   $0xc371
    23a4:	68 57 c1 00 00       	push   $0xc157
    23a9:	e8 a0 de ff ff       	call   24e <write_file>
    23ae:	83 c4 10             	add    $0x10,%esp
    23b1:	85 c0                	test   %eax,%eax
    23b3:	74 19                	je     23ce <test_limiting_cpu_max_and_period+0xbc>
    23b5:	eb 6e                	jmp    2425 <test_limiting_cpu_max_and_period+0x113>
    23b7:	83 ec 08             	sub    $0x8,%esp
    23ba:	68 3c bf 00 00       	push   $0xbf3c
    23bf:	6a 01                	push   $0x1
    23c1:	e8 a1 97 00 00       	call   bb67 <printf>
    23c6:	83 c3 01             	add    $0x1,%ebx
    23c9:	83 c4 10             	add    $0x10,%esp
    23cc:	eb 05                	jmp    23d3 <test_limiting_cpu_max_and_period+0xc1>
    23ce:	bb 00 00 00 00       	mov    $0x0,%ebx
    23d3:	83 ec 0c             	sub    $0xc,%esp
    23d6:	68 38 de 00 00       	push   $0xde38
    23db:	e8 23 93 00 00       	call   b703 <strlen>
    23e0:	89 c6                	mov    %eax,%esi
    23e2:	c7 04 24 3e bf 00 00 	movl   $0xbf3e,(%esp)
    23e9:	e8 15 93 00 00       	call   b703 <strlen>
    23ee:	8d 44 06 02          	lea    0x2(%esi,%eax,1),%eax
    23f2:	83 c4 10             	add    $0x10,%esp
    23f5:	39 d8                	cmp    %ebx,%eax
    23f7:	77 be                	ja     23b7 <test_limiting_cpu_max_and_period+0xa5>
    23f9:	83 ec 0c             	sub    $0xc,%esp
    23fc:	68 dc 01 00 00       	push   $0x1dc
    2401:	68 f9 bf 00 00       	push   $0xbff9
    2406:	57                   	push   %edi
    2407:	68 5c de 00 00       	push   $0xde5c
    240c:	6a 01                	push   $0x1
    240e:	e8 54 97 00 00       	call   bb67 <printf>
    2413:	c7 05 40 42 01 00 01 	movl   $0x1,0x14240
    241a:	00 00 00 
    241d:	83 c4 20             	add    $0x20,%esp
    2420:	e9 2a 02 00 00       	jmp    264f <test_limiting_cpu_max_and_period+0x33d>

    // Check changes
    ASSERT_FALSE(strcmp(read_file(TEST_1_CPU_MAX, 0), "max - 5000\nperiod - 100000\n"));
    2425:	83 ec 08             	sub    $0x8,%esp
    2428:	6a 00                	push   $0x0
    242a:	68 57 c1 00 00       	push   $0xc157
    242f:	e8 68 dd ff ff       	call   19c <read_file>
    2434:	83 c4 08             	add    $0x8,%esp
    2437:	68 76 c3 00 00       	push   $0xc376
    243c:	50                   	push   %eax
    243d:	e8 6b 92 00 00       	call   b6ad <strcmp>
    2442:	83 c4 10             	add    $0x10,%esp
    2445:	85 c0                	test   %eax,%eax
    2447:	75 19                	jne    2462 <test_limiting_cpu_max_and_period+0x150>
    2449:	eb 6e                	jmp    24b9 <test_limiting_cpu_max_and_period+0x1a7>
    244b:	83 ec 08             	sub    $0x8,%esp
    244e:	68 3c bf 00 00       	push   $0xbf3c
    2453:	6a 01                	push   $0x1
    2455:	e8 0d 97 00 00       	call   bb67 <printf>
    245a:	83 c3 01             	add    $0x1,%ebx
    245d:	83 c4 10             	add    $0x10,%esp
    2460:	eb 05                	jmp    2467 <test_limiting_cpu_max_and_period+0x155>
    2462:	bb 00 00 00 00       	mov    $0x0,%ebx
    2467:	83 ec 0c             	sub    $0xc,%esp
    246a:	68 a8 de 00 00       	push   $0xdea8
    246f:	e8 8f 92 00 00       	call   b703 <strlen>
    2474:	89 c6                	mov    %eax,%esi
    2476:	c7 04 24 3e bf 00 00 	movl   $0xbf3e,(%esp)
    247d:	e8 81 92 00 00       	call   b703 <strlen>
    2482:	8d 44 06 02          	lea    0x2(%esi,%eax,1),%eax
    2486:	83 c4 10             	add    $0x10,%esp
    2489:	39 d8                	cmp    %ebx,%eax
    248b:	77 be                	ja     244b <test_limiting_cpu_max_and_period+0x139>
    248d:	83 ec 0c             	sub    $0xc,%esp
    2490:	68 df 01 00 00       	push   $0x1df
    2495:	68 f9 bf 00 00       	push   $0xbff9
    249a:	57                   	push   %edi
    249b:	68 f0 de 00 00       	push   $0xdef0
    24a0:	6a 01                	push   $0x1
    24a2:	e8 c0 96 00 00       	call   bb67 <printf>
    24a7:	c7 05 40 42 01 00 01 	movl   $0x1,0x14240
    24ae:	00 00 00 
    24b1:	83 c4 20             	add    $0x20,%esp
    24b4:	e9 96 01 00 00       	jmp    264f <test_limiting_cpu_max_and_period+0x33d>

    // Update max & period
    ASSERT_TRUE(write_file(TEST_1_CPU_MAX, "1000,20000"));
    24b9:	83 ec 08             	sub    $0x8,%esp
    24bc:	68 92 c3 00 00       	push   $0xc392
    24c1:	68 57 c1 00 00       	push   $0xc157
    24c6:	e8 83 dd ff ff       	call   24e <write_file>
    24cb:	83 c4 10             	add    $0x10,%esp
    24ce:	85 c0                	test   %eax,%eax
    24d0:	74 19                	je     24eb <test_limiting_cpu_max_and_period+0x1d9>
    24d2:	eb 6e                	jmp    2542 <test_limiting_cpu_max_and_period+0x230>
    24d4:	83 ec 08             	sub    $0x8,%esp
    24d7:	68 3c bf 00 00       	push   $0xbf3c
    24dc:	6a 01                	push   $0x1
    24de:	e8 84 96 00 00       	call   bb67 <printf>
    24e3:	83 c3 01             	add    $0x1,%ebx
    24e6:	83 c4 10             	add    $0x10,%esp
    24e9:	eb 05                	jmp    24f0 <test_limiting_cpu_max_and_period+0x1de>
    24eb:	bb 00 00 00 00       	mov    $0x0,%ebx
    24f0:	83 ec 0c             	sub    $0xc,%esp
    24f3:	68 60 df 00 00       	push   $0xdf60
    24f8:	e8 06 92 00 00       	call   b703 <strlen>
    24fd:	89 c6                	mov    %eax,%esi
    24ff:	c7 04 24 3e bf 00 00 	movl   $0xbf3e,(%esp)
    2506:	e8 f8 91 00 00       	call   b703 <strlen>
    250b:	8d 44 06 02          	lea    0x2(%esi,%eax,1),%eax
    250f:	83 c4 10             	add    $0x10,%esp
    2512:	39 d8                	cmp    %ebx,%eax
    2514:	77 be                	ja     24d4 <test_limiting_cpu_max_and_period+0x1c2>
    2516:	83 ec 0c             	sub    $0xc,%esp
    2519:	68 e2 01 00 00       	push   $0x1e2
    251e:	68 f9 bf 00 00       	push   $0xbff9
    2523:	57                   	push   %edi
    2524:	68 8c df 00 00       	push   $0xdf8c
    2529:	6a 01                	push   $0x1
    252b:	e8 37 96 00 00       	call   bb67 <printf>
    2530:	c7 05 40 42 01 00 01 	movl   $0x1,0x14240
    2537:	00 00 00 
    253a:	83 c4 20             	add    $0x20,%esp
    253d:	e9 0d 01 00 00       	jmp    264f <test_limiting_cpu_max_and_period+0x33d>

    // Check changes
    ASSERT_FALSE(strcmp(read_file(TEST_1_CPU_MAX, 0), "max - 1000\nperiod - 20000\n"));
    2542:	83 ec 08             	sub    $0x8,%esp
    2545:	6a 00                	push   $0x0
    2547:	68 57 c1 00 00       	push   $0xc157
    254c:	e8 4b dc ff ff       	call   19c <read_file>
    2551:	83 c4 08             	add    $0x8,%esp
    2554:	68 9d c3 00 00       	push   $0xc39d
    2559:	50                   	push   %eax
    255a:	e8 4e 91 00 00       	call   b6ad <strcmp>
    255f:	83 c4 10             	add    $0x10,%esp
    2562:	85 c0                	test   %eax,%eax
    2564:	75 19                	jne    257f <test_limiting_cpu_max_and_period+0x26d>
    2566:	eb 6b                	jmp    25d3 <test_limiting_cpu_max_and_period+0x2c1>
    2568:	83 ec 08             	sub    $0x8,%esp
    256b:	68 3c bf 00 00       	push   $0xbf3c
    2570:	6a 01                	push   $0x1
    2572:	e8 f0 95 00 00       	call   bb67 <printf>
    2577:	83 c3 01             	add    $0x1,%ebx
    257a:	83 c4 10             	add    $0x10,%esp
    257d:	eb 05                	jmp    2584 <test_limiting_cpu_max_and_period+0x272>
    257f:	bb 00 00 00 00       	mov    $0x0,%ebx
    2584:	83 ec 0c             	sub    $0xc,%esp
    2587:	68 e0 df 00 00       	push   $0xdfe0
    258c:	e8 72 91 00 00       	call   b703 <strlen>
    2591:	89 c6                	mov    %eax,%esi
    2593:	c7 04 24 3e bf 00 00 	movl   $0xbf3e,(%esp)
    259a:	e8 64 91 00 00       	call   b703 <strlen>
    259f:	8d 44 06 02          	lea    0x2(%esi,%eax,1),%eax
    25a3:	83 c4 10             	add    $0x10,%esp
    25a6:	39 d8                	cmp    %ebx,%eax
    25a8:	77 be                	ja     2568 <test_limiting_cpu_max_and_period+0x256>
    25aa:	83 ec 0c             	sub    $0xc,%esp
    25ad:	68 e5 01 00 00       	push   $0x1e5
    25b2:	68 f9 bf 00 00       	push   $0xbff9
    25b7:	57                   	push   %edi
    25b8:	68 28 e0 00 00       	push   $0xe028
    25bd:	6a 01                	push   $0x1
    25bf:	e8 a3 95 00 00       	call   bb67 <printf>
    25c4:	c7 05 40 42 01 00 01 	movl   $0x1,0x14240
    25cb:	00 00 00 
    25ce:	83 c4 20             	add    $0x20,%esp
    25d1:	eb 7c                	jmp    264f <test_limiting_cpu_max_and_period+0x33d>

    // Disable cpu controller
    ASSERT_TRUE(disable_controller(CPU_CNT));
    25d3:	83 ec 0c             	sub    $0xc,%esp
    25d6:	6a 00                	push   $0x0
    25d8:	e8 d8 dd ff ff       	call   3b5 <disable_controller>
    25dd:	83 c4 10             	add    $0x10,%esp
    25e0:	85 c0                	test   %eax,%eax
    25e2:	74 19                	je     25fd <test_limiting_cpu_max_and_period+0x2eb>
    25e4:	eb 69                	jmp    264f <test_limiting_cpu_max_and_period+0x33d>
    25e6:	83 ec 08             	sub    $0x8,%esp
    25e9:	68 3c bf 00 00       	push   $0xbf3c
    25ee:	6a 01                	push   $0x1
    25f0:	e8 72 95 00 00       	call   bb67 <printf>
    25f5:	83 c3 01             	add    $0x1,%ebx
    25f8:	83 c4 10             	add    $0x10,%esp
    25fb:	eb 05                	jmp    2602 <test_limiting_cpu_max_and_period+0x2f0>
    25fd:	bb 00 00 00 00       	mov    $0x0,%ebx
    2602:	83 ec 0c             	sub    $0xc,%esp
    2605:	68 b8 c3 00 00       	push   $0xc3b8
    260a:	e8 f4 90 00 00       	call   b703 <strlen>
    260f:	89 c6                	mov    %eax,%esi
    2611:	c7 04 24 3e bf 00 00 	movl   $0xbf3e,(%esp)
    2618:	e8 e6 90 00 00       	call   b703 <strlen>
    261d:	8d 44 06 02          	lea    0x2(%esi,%eax,1),%eax
    2621:	83 c4 10             	add    $0x10,%esp
    2624:	39 d8                	cmp    %ebx,%eax
    2626:	77 be                	ja     25e6 <test_limiting_cpu_max_and_period+0x2d4>
    2628:	83 ec 0c             	sub    $0xc,%esp
    262b:	68 e8 01 00 00       	push   $0x1e8
    2630:	68 f9 bf 00 00       	push   $0xbff9
    2635:	57                   	push   %edi
    2636:	68 98 e0 00 00       	push   $0xe098
    263b:	6a 01                	push   $0x1
    263d:	e8 25 95 00 00       	call   bb67 <printf>
    2642:	c7 05 40 42 01 00 01 	movl   $0x1,0x14240
    2649:	00 00 00 
    264c:	83 c4 20             	add    $0x20,%esp
}
    264f:	8d 65 f4             	lea    -0xc(%ebp),%esp
    2652:	5b                   	pop    %ebx
    2653:	5e                   	pop    %esi
    2654:	5f                   	pop    %edi
    2655:	5d                   	pop    %ebp
    2656:	c3                   	ret    

00002657 <test_limiting_pids>:

TEST(test_limiting_pids)
{
    2657:	55                   	push   %ebp
    2658:	89 e5                	mov    %esp,%ebp
    265a:	56                   	push   %esi
    265b:	53                   	push   %ebx
    // Enable pid controller
    ASSERT_TRUE(enable_controller(PID_CNT));
    265c:	83 ec 0c             	sub    $0xc,%esp
    265f:	6a 01                	push   $0x1
    2661:	e8 fa dc ff ff       	call   360 <enable_controller>
    2666:	83 c4 10             	add    $0x10,%esp
    2669:	85 c0                	test   %eax,%eax
    266b:	74 19                	je     2686 <test_limiting_pids+0x2f>
    266d:	eb 70                	jmp    26df <test_limiting_pids+0x88>
    266f:	83 ec 08             	sub    $0x8,%esp
    2672:	68 3c bf 00 00       	push   $0xbf3c
    2677:	6a 01                	push   $0x1
    2679:	e8 e9 94 00 00       	call   bb67 <printf>
    267e:	83 c3 01             	add    $0x1,%ebx
    2681:	83 c4 10             	add    $0x10,%esp
    2684:	eb 05                	jmp    268b <test_limiting_pids+0x34>
    2686:	bb 00 00 00 00       	mov    $0x0,%ebx
    268b:	83 ec 0c             	sub    $0xc,%esp
    268e:	68 d4 c3 00 00       	push   $0xc3d4
    2693:	e8 6b 90 00 00       	call   b703 <strlen>
    2698:	89 c6                	mov    %eax,%esi
    269a:	c7 04 24 3e bf 00 00 	movl   $0xbf3e,(%esp)
    26a1:	e8 5d 90 00 00       	call   b703 <strlen>
    26a6:	8d 44 06 02          	lea    0x2(%esi,%eax,1),%eax
    26aa:	83 c4 10             	add    $0x10,%esp
    26ad:	39 d8                	cmp    %ebx,%eax
    26af:	77 be                	ja     266f <test_limiting_pids+0x18>
    26b1:	83 ec 0c             	sub    $0xc,%esp
    26b4:	68 ee 01 00 00       	push   $0x1ee
    26b9:	68 f9 bf 00 00       	push   $0xbff9
    26be:	ff 75 08             	pushl  0x8(%ebp)
    26c1:	68 e0 e0 00 00       	push   $0xe0e0
    26c6:	6a 01                	push   $0x1
    26c8:	e8 9a 94 00 00       	call   bb67 <printf>
    26cd:	c7 05 40 42 01 00 01 	movl   $0x1,0x14240
    26d4:	00 00 00 
    26d7:	83 c4 20             	add    $0x20,%esp
    26da:	e9 3d 02 00 00       	jmp    291c <test_limiting_pids+0x2c5>

    // Update pid limit
    ASSERT_TRUE(write_file(TEST_1_PID_MAX, "10"));
    26df:	83 ec 08             	sub    $0x8,%esp
    26e2:	68 ef c3 00 00       	push   $0xc3ef
    26e7:	68 9d c1 00 00       	push   $0xc19d
    26ec:	e8 5d db ff ff       	call   24e <write_file>
    26f1:	83 c4 10             	add    $0x10,%esp
    26f4:	85 c0                	test   %eax,%eax
    26f6:	74 19                	je     2711 <test_limiting_pids+0xba>
    26f8:	eb 70                	jmp    276a <test_limiting_pids+0x113>
    26fa:	83 ec 08             	sub    $0x8,%esp
    26fd:	68 3c bf 00 00       	push   $0xbf3c
    2702:	6a 01                	push   $0x1
    2704:	e8 5e 94 00 00       	call   bb67 <printf>
    2709:	83 c3 01             	add    $0x1,%ebx
    270c:	83 c4 10             	add    $0x10,%esp
    270f:	eb 05                	jmp    2716 <test_limiting_pids+0xbf>
    2711:	bb 00 00 00 00       	mov    $0x0,%ebx
    2716:	83 ec 0c             	sub    $0xc,%esp
    2719:	68 24 e1 00 00       	push   $0xe124
    271e:	e8 e0 8f 00 00       	call   b703 <strlen>
    2723:	89 c6                	mov    %eax,%esi
    2725:	c7 04 24 3e bf 00 00 	movl   $0xbf3e,(%esp)
    272c:	e8 d2 8f 00 00       	call   b703 <strlen>
    2731:	8d 44 06 02          	lea    0x2(%esi,%eax,1),%eax
    2735:	83 c4 10             	add    $0x10,%esp
    2738:	39 d8                	cmp    %ebx,%eax
    273a:	77 be                	ja     26fa <test_limiting_pids+0xa3>
    273c:	83 ec 0c             	sub    $0xc,%esp
    273f:	68 f1 01 00 00       	push   $0x1f1
    2744:	68 f9 bf 00 00       	push   $0xbff9
    2749:	ff 75 08             	pushl  0x8(%ebp)
    274c:	68 48 e1 00 00       	push   $0xe148
    2751:	6a 01                	push   $0x1
    2753:	e8 0f 94 00 00       	call   bb67 <printf>
    2758:	c7 05 40 42 01 00 01 	movl   $0x1,0x14240
    275f:	00 00 00 
    2762:	83 c4 20             	add    $0x20,%esp
    2765:	e9 b2 01 00 00       	jmp    291c <test_limiting_pids+0x2c5>

    // Check changes
    ASSERT_FALSE(strcmp(read_file(TEST_1_PID_MAX, 0), "max - 10\n"));
    276a:	83 ec 08             	sub    $0x8,%esp
    276d:	6a 00                	push   $0x0
    276f:	68 9d c1 00 00       	push   $0xc19d
    2774:	e8 23 da ff ff       	call   19c <read_file>
    2779:	83 c4 08             	add    $0x8,%esp
    277c:	68 f2 c3 00 00       	push   $0xc3f2
    2781:	50                   	push   %eax
    2782:	e8 26 8f 00 00       	call   b6ad <strcmp>
    2787:	83 c4 10             	add    $0x10,%esp
    278a:	85 c0                	test   %eax,%eax
    278c:	75 19                	jne    27a7 <test_limiting_pids+0x150>
    278e:	eb 70                	jmp    2800 <test_limiting_pids+0x1a9>
    2790:	83 ec 08             	sub    $0x8,%esp
    2793:	68 3c bf 00 00       	push   $0xbf3c
    2798:	6a 01                	push   $0x1
    279a:	e8 c8 93 00 00       	call   bb67 <printf>
    279f:	83 c3 01             	add    $0x1,%ebx
    27a2:	83 c4 10             	add    $0x10,%esp
    27a5:	eb 05                	jmp    27ac <test_limiting_pids+0x155>
    27a7:	bb 00 00 00 00       	mov    $0x0,%ebx
    27ac:	83 ec 0c             	sub    $0xc,%esp
    27af:	68 94 e1 00 00       	push   $0xe194
    27b4:	e8 4a 8f 00 00       	call   b703 <strlen>
    27b9:	89 c6                	mov    %eax,%esi
    27bb:	c7 04 24 3e bf 00 00 	movl   $0xbf3e,(%esp)
    27c2:	e8 3c 8f 00 00       	call   b703 <strlen>
    27c7:	8d 44 06 02          	lea    0x2(%esi,%eax,1),%eax
    27cb:	83 c4 10             	add    $0x10,%esp
    27ce:	39 d8                	cmp    %ebx,%eax
    27d0:	77 be                	ja     2790 <test_limiting_pids+0x139>
    27d2:	83 ec 0c             	sub    $0xc,%esp
    27d5:	68 f4 01 00 00       	push   $0x1f4
    27da:	68 f9 bf 00 00       	push   $0xbff9
    27df:	ff 75 08             	pushl  0x8(%ebp)
    27e2:	68 c8 e1 00 00       	push   $0xe1c8
    27e7:	6a 01                	push   $0x1
    27e9:	e8 79 93 00 00       	call   bb67 <printf>
    27ee:	c7 05 40 42 01 00 01 	movl   $0x1,0x14240
    27f5:	00 00 00 
    27f8:	83 c4 20             	add    $0x20,%esp
    27fb:	e9 1c 01 00 00       	jmp    291c <test_limiting_pids+0x2c5>

    // Restore to 64
    ASSERT_TRUE(write_file(TEST_1_PID_MAX, "64"));
    2800:	83 ec 08             	sub    $0x8,%esp
    2803:	68 fc c3 00 00       	push   $0xc3fc
    2808:	68 9d c1 00 00       	push   $0xc19d
    280d:	e8 3c da ff ff       	call   24e <write_file>
    2812:	83 c4 10             	add    $0x10,%esp
    2815:	85 c0                	test   %eax,%eax
    2817:	74 19                	je     2832 <test_limiting_pids+0x1db>
    2819:	eb 70                	jmp    288b <test_limiting_pids+0x234>
    281b:	83 ec 08             	sub    $0x8,%esp
    281e:	68 3c bf 00 00       	push   $0xbf3c
    2823:	6a 01                	push   $0x1
    2825:	e8 3d 93 00 00       	call   bb67 <printf>
    282a:	83 c3 01             	add    $0x1,%ebx
    282d:	83 c4 10             	add    $0x10,%esp
    2830:	eb 05                	jmp    2837 <test_limiting_pids+0x1e0>
    2832:	bb 00 00 00 00       	mov    $0x0,%ebx
    2837:	83 ec 0c             	sub    $0xc,%esp
    283a:	68 24 e2 00 00       	push   $0xe224
    283f:	e8 bf 8e 00 00       	call   b703 <strlen>
    2844:	89 c6                	mov    %eax,%esi
    2846:	c7 04 24 3e bf 00 00 	movl   $0xbf3e,(%esp)
    284d:	e8 b1 8e 00 00       	call   b703 <strlen>
    2852:	8d 44 06 02          	lea    0x2(%esi,%eax,1),%eax
    2856:	83 c4 10             	add    $0x10,%esp
    2859:	39 d8                	cmp    %ebx,%eax
    285b:	77 be                	ja     281b <test_limiting_pids+0x1c4>
    285d:	83 ec 0c             	sub    $0xc,%esp
    2860:	68 f7 01 00 00       	push   $0x1f7
    2865:	68 f9 bf 00 00       	push   $0xbff9
    286a:	ff 75 08             	pushl  0x8(%ebp)
    286d:	68 48 e2 00 00       	push   $0xe248
    2872:	6a 01                	push   $0x1
    2874:	e8 ee 92 00 00       	call   bb67 <printf>
    2879:	c7 05 40 42 01 00 01 	movl   $0x1,0x14240
    2880:	00 00 00 
    2883:	83 c4 20             	add    $0x20,%esp
    2886:	e9 91 00 00 00       	jmp    291c <test_limiting_pids+0x2c5>

    // Check changes
    ASSERT_FALSE(strcmp(read_file(TEST_1_PID_MAX, 0), "max - 64\n"));
    288b:	83 ec 08             	sub    $0x8,%esp
    288e:	6a 00                	push   $0x0
    2890:	68 9d c1 00 00       	push   $0xc19d
    2895:	e8 02 d9 ff ff       	call   19c <read_file>
    289a:	83 c4 08             	add    $0x8,%esp
    289d:	68 ff c3 00 00       	push   $0xc3ff
    28a2:	50                   	push   %eax
    28a3:	e8 05 8e 00 00       	call   b6ad <strcmp>
    28a8:	83 c4 10             	add    $0x10,%esp
    28ab:	85 c0                	test   %eax,%eax
    28ad:	75 19                	jne    28c8 <test_limiting_pids+0x271>
    28af:	eb 6b                	jmp    291c <test_limiting_pids+0x2c5>
    28b1:	83 ec 08             	sub    $0x8,%esp
    28b4:	68 3c bf 00 00       	push   $0xbf3c
    28b9:	6a 01                	push   $0x1
    28bb:	e8 a7 92 00 00       	call   bb67 <printf>
    28c0:	83 c3 01             	add    $0x1,%ebx
    28c3:	83 c4 10             	add    $0x10,%esp
    28c6:	eb 05                	jmp    28cd <test_limiting_pids+0x276>
    28c8:	bb 00 00 00 00       	mov    $0x0,%ebx
    28cd:	83 ec 0c             	sub    $0xc,%esp
    28d0:	68 94 e2 00 00       	push   $0xe294
    28d5:	e8 29 8e 00 00       	call   b703 <strlen>
    28da:	89 c6                	mov    %eax,%esi
    28dc:	c7 04 24 3e bf 00 00 	movl   $0xbf3e,(%esp)
    28e3:	e8 1b 8e 00 00       	call   b703 <strlen>
    28e8:	8d 44 06 02          	lea    0x2(%esi,%eax,1),%eax
    28ec:	83 c4 10             	add    $0x10,%esp
    28ef:	39 d8                	cmp    %ebx,%eax
    28f1:	77 be                	ja     28b1 <test_limiting_pids+0x25a>
    28f3:	83 ec 0c             	sub    $0xc,%esp
    28f6:	68 fa 01 00 00       	push   $0x1fa
    28fb:	68 f9 bf 00 00       	push   $0xbff9
    2900:	ff 75 08             	pushl  0x8(%ebp)
    2903:	68 c8 e2 00 00       	push   $0xe2c8
    2908:	6a 01                	push   $0x1
    290a:	e8 58 92 00 00       	call   bb67 <printf>
    290f:	c7 05 40 42 01 00 01 	movl   $0x1,0x14240
    2916:	00 00 00 
    2919:	83 c4 20             	add    $0x20,%esp
}
    291c:	8d 65 f8             	lea    -0x8(%ebp),%esp
    291f:	5b                   	pop    %ebx
    2920:	5e                   	pop    %esi
    2921:	5d                   	pop    %ebp
    2922:	c3                   	ret    

00002923 <test_move_failure>:

TEST(test_move_failure)
{
    2923:	55                   	push   %ebp
    2924:	89 e5                	mov    %esp,%ebp
    2926:	57                   	push   %edi
    2927:	56                   	push   %esi
    2928:	53                   	push   %ebx
    2929:	83 ec 18             	sub    $0x18,%esp
    292c:	8b 7d 08             	mov    0x8(%ebp),%edi
    // Enable pid controller
    ASSERT_TRUE(enable_controller(PID_CNT));
    292f:	6a 01                	push   $0x1
    2931:	e8 2a da ff ff       	call   360 <enable_controller>
    2936:	83 c4 10             	add    $0x10,%esp
    2939:	85 c0                	test   %eax,%eax
    293b:	74 19                	je     2956 <test_move_failure+0x33>
    293d:	eb 6e                	jmp    29ad <test_move_failure+0x8a>
    293f:	83 ec 08             	sub    $0x8,%esp
    2942:	68 3c bf 00 00       	push   $0xbf3c
    2947:	6a 01                	push   $0x1
    2949:	e8 19 92 00 00       	call   bb67 <printf>
    294e:	83 c3 01             	add    $0x1,%ebx
    2951:	83 c4 10             	add    $0x10,%esp
    2954:	eb 05                	jmp    295b <test_move_failure+0x38>
    2956:	bb 00 00 00 00       	mov    $0x0,%ebx
    295b:	83 ec 0c             	sub    $0xc,%esp
    295e:	68 d4 c3 00 00       	push   $0xc3d4
    2963:	e8 9b 8d 00 00       	call   b703 <strlen>
    2968:	89 c6                	mov    %eax,%esi
    296a:	c7 04 24 3e bf 00 00 	movl   $0xbf3e,(%esp)
    2971:	e8 8d 8d 00 00       	call   b703 <strlen>
    2976:	8d 44 06 02          	lea    0x2(%esi,%eax,1),%eax
    297a:	83 c4 10             	add    $0x10,%esp
    297d:	39 d8                	cmp    %ebx,%eax
    297f:	77 be                	ja     293f <test_move_failure+0x1c>
    2981:	83 ec 0c             	sub    $0xc,%esp
    2984:	68 00 02 00 00       	push   $0x200
    2989:	68 f9 bf 00 00       	push   $0xbff9
    298e:	57                   	push   %edi
    298f:	68 e0 e0 00 00       	push   $0xe0e0
    2994:	6a 01                	push   $0x1
    2996:	e8 cc 91 00 00       	call   bb67 <printf>
    299b:	c7 05 40 42 01 00 01 	movl   $0x1,0x14240
    29a2:	00 00 00 
    29a5:	83 c4 20             	add    $0x20,%esp
    29a8:	e9 a0 02 00 00       	jmp    2c4d <test_move_failure+0x32a>

    // Update pid limit
    ASSERT_TRUE(write_file(TEST_1_PID_MAX, "0"));
    29ad:	83 ec 08             	sub    $0x8,%esp
    29b0:	68 9b c3 00 00       	push   $0xc39b
    29b5:	68 9d c1 00 00       	push   $0xc19d
    29ba:	e8 8f d8 ff ff       	call   24e <write_file>
    29bf:	83 c4 10             	add    $0x10,%esp
    29c2:	85 c0                	test   %eax,%eax
    29c4:	74 19                	je     29df <test_move_failure+0xbc>
    29c6:	eb 6e                	jmp    2a36 <test_move_failure+0x113>
    29c8:	83 ec 08             	sub    $0x8,%esp
    29cb:	68 3c bf 00 00       	push   $0xbf3c
    29d0:	6a 01                	push   $0x1
    29d2:	e8 90 91 00 00       	call   bb67 <printf>
    29d7:	83 c3 01             	add    $0x1,%ebx
    29da:	83 c4 10             	add    $0x10,%esp
    29dd:	eb 05                	jmp    29e4 <test_move_failure+0xc1>
    29df:	bb 00 00 00 00       	mov    $0x0,%ebx
    29e4:	83 ec 0c             	sub    $0xc,%esp
    29e7:	68 24 e3 00 00       	push   $0xe324
    29ec:	e8 12 8d 00 00       	call   b703 <strlen>
    29f1:	89 c6                	mov    %eax,%esi
    29f3:	c7 04 24 3e bf 00 00 	movl   $0xbf3e,(%esp)
    29fa:	e8 04 8d 00 00       	call   b703 <strlen>
    29ff:	8d 44 06 02          	lea    0x2(%esi,%eax,1),%eax
    2a03:	83 c4 10             	add    $0x10,%esp
    2a06:	39 d8                	cmp    %ebx,%eax
    2a08:	77 be                	ja     29c8 <test_move_failure+0xa5>
    2a0a:	83 ec 0c             	sub    $0xc,%esp
    2a0d:	68 03 02 00 00       	push   $0x203
    2a12:	68 f9 bf 00 00       	push   $0xbff9
    2a17:	57                   	push   %edi
    2a18:	68 44 e3 00 00       	push   $0xe344
    2a1d:	6a 01                	push   $0x1
    2a1f:	e8 43 91 00 00       	call   bb67 <printf>
    2a24:	c7 05 40 42 01 00 01 	movl   $0x1,0x14240
    2a2b:	00 00 00 
    2a2e:	83 c4 20             	add    $0x20,%esp
    2a31:	e9 17 02 00 00       	jmp    2c4d <test_move_failure+0x32a>

    // Attempt to move the current process to "/cgroup/test1" cgroup.
    // Notice write here should fail, and so we suppress error outputs from this point.
    ASSERT_FALSE(move_proc(TEST_1_CGROUP_PROCS, getpid()));
    2a36:	e8 bb 8f 00 00       	call   b9f6 <getpid>
    2a3b:	83 ec 08             	sub    $0x8,%esp
    2a3e:	50                   	push   %eax
    2a3f:	68 06 c1 00 00       	push   $0xc106
    2a44:	e8 ee da ff ff       	call   537 <move_proc>
    2a49:	83 c4 10             	add    $0x10,%esp
    2a4c:	85 c0                	test   %eax,%eax
    2a4e:	75 19                	jne    2a69 <test_move_failure+0x146>
    2a50:	eb 6e                	jmp    2ac0 <test_move_failure+0x19d>
    2a52:	83 ec 08             	sub    $0x8,%esp
    2a55:	68 3c bf 00 00       	push   $0xbf3c
    2a5a:	6a 01                	push   $0x1
    2a5c:	e8 06 91 00 00       	call   bb67 <printf>
    2a61:	83 c3 01             	add    $0x1,%ebx
    2a64:	83 c4 10             	add    $0x10,%esp
    2a67:	eb 05                	jmp    2a6e <test_move_failure+0x14b>
    2a69:	bb 00 00 00 00       	mov    $0x0,%ebx
    2a6e:	83 ec 0c             	sub    $0xc,%esp
    2a71:	68 90 e3 00 00       	push   $0xe390
    2a76:	e8 88 8c 00 00       	call   b703 <strlen>
    2a7b:	89 c6                	mov    %eax,%esi
    2a7d:	c7 04 24 3e bf 00 00 	movl   $0xbf3e,(%esp)
    2a84:	e8 7a 8c 00 00       	call   b703 <strlen>
    2a89:	8d 44 06 02          	lea    0x2(%esi,%eax,1),%eax
    2a8d:	83 c4 10             	add    $0x10,%esp
    2a90:	39 d8                	cmp    %ebx,%eax
    2a92:	77 be                	ja     2a52 <test_move_failure+0x12f>
    2a94:	83 ec 0c             	sub    $0xc,%esp
    2a97:	68 07 02 00 00       	push   $0x207
    2a9c:	68 f9 bf 00 00       	push   $0xbff9
    2aa1:	57                   	push   %edi
    2aa2:	68 bc e3 00 00       	push   $0xe3bc
    2aa7:	6a 01                	push   $0x1
    2aa9:	e8 b9 90 00 00       	call   bb67 <printf>
    2aae:	c7 05 40 42 01 00 01 	movl   $0x1,0x14240
    2ab5:	00 00 00 
    2ab8:	83 c4 20             	add    $0x20,%esp
    2abb:	e9 8d 01 00 00       	jmp    2c4d <test_move_failure+0x32a>

    // Check that the process we moved is not in "/cgroup/test1" cgroup.
    // Notice this should fail.
    ASSERT_FALSE(is_pid_in_group(TEST_1_CGROUP_PROCS, getpid()));
    2ac0:	e8 31 8f 00 00       	call   b9f6 <getpid>
    2ac5:	83 ec 08             	sub    $0x8,%esp
    2ac8:	50                   	push   %eax
    2ac9:	68 06 c1 00 00       	push   $0xc106
    2ace:	e8 97 da ff ff       	call   56a <is_pid_in_group>
    2ad3:	83 c4 10             	add    $0x10,%esp
    2ad6:	85 c0                	test   %eax,%eax
    2ad8:	75 19                	jne    2af3 <test_move_failure+0x1d0>
    2ada:	eb 6e                	jmp    2b4a <test_move_failure+0x227>
    2adc:	83 ec 08             	sub    $0x8,%esp
    2adf:	68 3c bf 00 00       	push   $0xbf3c
    2ae4:	6a 01                	push   $0x1
    2ae6:	e8 7c 90 00 00       	call   bb67 <printf>
    2aeb:	83 c3 01             	add    $0x1,%ebx
    2aee:	83 c4 10             	add    $0x10,%esp
    2af1:	eb 05                	jmp    2af8 <test_move_failure+0x1d5>
    2af3:	bb 00 00 00 00       	mov    $0x0,%ebx
    2af8:	83 ec 0c             	sub    $0xc,%esp
    2afb:	68 10 e4 00 00       	push   $0xe410
    2b00:	e8 fe 8b 00 00       	call   b703 <strlen>
    2b05:	89 c6                	mov    %eax,%esi
    2b07:	c7 04 24 3e bf 00 00 	movl   $0xbf3e,(%esp)
    2b0e:	e8 f0 8b 00 00       	call   b703 <strlen>
    2b13:	8d 44 06 02          	lea    0x2(%esi,%eax,1),%eax
    2b17:	83 c4 10             	add    $0x10,%esp
    2b1a:	39 d8                	cmp    %ebx,%eax
    2b1c:	77 be                	ja     2adc <test_move_failure+0x1b9>
    2b1e:	83 ec 0c             	sub    $0xc,%esp
    2b21:	68 0b 02 00 00       	push   $0x20b
    2b26:	68 f9 bf 00 00       	push   $0xbff9
    2b2b:	57                   	push   %edi
    2b2c:	68 40 e4 00 00       	push   $0xe440
    2b31:	6a 01                	push   $0x1
    2b33:	e8 2f 90 00 00       	call   bb67 <printf>
    2b38:	c7 05 40 42 01 00 01 	movl   $0x1,0x14240
    2b3f:	00 00 00 
    2b42:	83 c4 20             	add    $0x20,%esp
    2b45:	e9 03 01 00 00       	jmp    2c4d <test_move_failure+0x32a>

    // Check that the process is still in root cgroup.
    ASSERT_TRUE(is_pid_in_group(ROOT_CGROUP_PROCS, getpid()));
    2b4a:	e8 a7 8e 00 00       	call   b9f6 <getpid>
    2b4f:	83 ec 08             	sub    $0x8,%esp
    2b52:	50                   	push   %eax
    2b53:	68 09 c4 00 00       	push   $0xc409
    2b58:	e8 0d da ff ff       	call   56a <is_pid_in_group>
    2b5d:	83 c4 10             	add    $0x10,%esp
    2b60:	85 c0                	test   %eax,%eax
    2b62:	74 19                	je     2b7d <test_move_failure+0x25a>
    2b64:	eb 6b                	jmp    2bd1 <test_move_failure+0x2ae>
    2b66:	83 ec 08             	sub    $0x8,%esp
    2b69:	68 3c bf 00 00       	push   $0xbf3c
    2b6e:	6a 01                	push   $0x1
    2b70:	e8 f2 8f 00 00       	call   bb67 <printf>
    2b75:	83 c3 01             	add    $0x1,%ebx
    2b78:	83 c4 10             	add    $0x10,%esp
    2b7b:	eb 05                	jmp    2b82 <test_move_failure+0x25f>
    2b7d:	bb 00 00 00 00       	mov    $0x0,%ebx
    2b82:	83 ec 0c             	sub    $0xc,%esp
    2b85:	68 98 e4 00 00       	push   $0xe498
    2b8a:	e8 74 8b 00 00       	call   b703 <strlen>
    2b8f:	89 c6                	mov    %eax,%esi
    2b91:	c7 04 24 3e bf 00 00 	movl   $0xbf3e,(%esp)
    2b98:	e8 66 8b 00 00       	call   b703 <strlen>
    2b9d:	8d 44 06 02          	lea    0x2(%esi,%eax,1),%eax
    2ba1:	83 c4 10             	add    $0x10,%esp
    2ba4:	39 d8                	cmp    %ebx,%eax
    2ba6:	77 be                	ja     2b66 <test_move_failure+0x243>
    2ba8:	83 ec 0c             	sub    $0xc,%esp
    2bab:	68 0e 02 00 00       	push   $0x20e
    2bb0:	68 f9 bf 00 00       	push   $0xbff9
    2bb5:	57                   	push   %edi
    2bb6:	68 c8 e4 00 00       	push   $0xe4c8
    2bbb:	6a 01                	push   $0x1
    2bbd:	e8 a5 8f 00 00       	call   bb67 <printf>
    2bc2:	c7 05 40 42 01 00 01 	movl   $0x1,0x14240
    2bc9:	00 00 00 
    2bcc:	83 c4 20             	add    $0x20,%esp
    2bcf:	eb 7c                	jmp    2c4d <test_move_failure+0x32a>

    // Disable PID controller
    ASSERT_TRUE(disable_controller(PID_CNT));
    2bd1:	83 ec 0c             	sub    $0xc,%esp
    2bd4:	6a 01                	push   $0x1
    2bd6:	e8 da d7 ff ff       	call   3b5 <disable_controller>
    2bdb:	83 c4 10             	add    $0x10,%esp
    2bde:	85 c0                	test   %eax,%eax
    2be0:	74 19                	je     2bfb <test_move_failure+0x2d8>
    2be2:	eb 69                	jmp    2c4d <test_move_failure+0x32a>
    2be4:	83 ec 08             	sub    $0x8,%esp
    2be7:	68 3c bf 00 00       	push   $0xbf3c
    2bec:	6a 01                	push   $0x1
    2bee:	e8 74 8f 00 00       	call   bb67 <printf>
    2bf3:	83 c3 01             	add    $0x1,%ebx
    2bf6:	83 c4 10             	add    $0x10,%esp
    2bf9:	eb 05                	jmp    2c00 <test_move_failure+0x2dd>
    2bfb:	bb 00 00 00 00       	mov    $0x0,%ebx
    2c00:	83 ec 0c             	sub    $0xc,%esp
    2c03:	68 1e c4 00 00       	push   $0xc41e
    2c08:	e8 f6 8a 00 00       	call   b703 <strlen>
    2c0d:	89 c6                	mov    %eax,%esi
    2c0f:	c7 04 24 3e bf 00 00 	movl   $0xbf3e,(%esp)
    2c16:	e8 e8 8a 00 00       	call   b703 <strlen>
    2c1b:	8d 44 06 02          	lea    0x2(%esi,%eax,1),%eax
    2c1f:	83 c4 10             	add    $0x10,%esp
    2c22:	39 d8                	cmp    %ebx,%eax
    2c24:	77 be                	ja     2be4 <test_move_failure+0x2c1>
    2c26:	83 ec 0c             	sub    $0xc,%esp
    2c29:	68 11 02 00 00       	push   $0x211
    2c2e:	68 f9 bf 00 00       	push   $0xbff9
    2c33:	57                   	push   %edi
    2c34:	68 20 e5 00 00       	push   $0xe520
    2c39:	6a 01                	push   $0x1
    2c3b:	e8 27 8f 00 00       	call   bb67 <printf>
    2c40:	c7 05 40 42 01 00 01 	movl   $0x1,0x14240
    2c47:	00 00 00 
    2c4a:	83 c4 20             	add    $0x20,%esp
}
    2c4d:	8d 65 f4             	lea    -0xc(%ebp),%esp
    2c50:	5b                   	pop    %ebx
    2c51:	5e                   	pop    %esi
    2c52:	5f                   	pop    %edi
    2c53:	5d                   	pop    %ebp
    2c54:	c3                   	ret    

00002c55 <test_fork_failure>:

TEST(test_fork_failure)
{
    2c55:	55                   	push   %ebp
    2c56:	89 e5                	mov    %esp,%ebp
    2c58:	57                   	push   %edi
    2c59:	56                   	push   %esi
    2c5a:	53                   	push   %ebx
    2c5b:	83 ec 18             	sub    $0x18,%esp
    2c5e:	8b 75 08             	mov    0x8(%ebp),%esi
    // Enable pid controller
    ASSERT_TRUE(enable_controller(PID_CNT));
    2c61:	6a 01                	push   $0x1
    2c63:	e8 f8 d6 ff ff       	call   360 <enable_controller>
    2c68:	83 c4 10             	add    $0x10,%esp
    2c6b:	85 c0                	test   %eax,%eax
    2c6d:	74 19                	je     2c88 <test_fork_failure+0x33>
    2c6f:	eb 6e                	jmp    2cdf <test_fork_failure+0x8a>
    2c71:	83 ec 08             	sub    $0x8,%esp
    2c74:	68 3c bf 00 00       	push   $0xbf3c
    2c79:	6a 01                	push   $0x1
    2c7b:	e8 e7 8e 00 00       	call   bb67 <printf>
    2c80:	83 c3 01             	add    $0x1,%ebx
    2c83:	83 c4 10             	add    $0x10,%esp
    2c86:	eb 05                	jmp    2c8d <test_fork_failure+0x38>
    2c88:	bb 00 00 00 00       	mov    $0x0,%ebx
    2c8d:	83 ec 0c             	sub    $0xc,%esp
    2c90:	68 d4 c3 00 00       	push   $0xc3d4
    2c95:	e8 69 8a 00 00       	call   b703 <strlen>
    2c9a:	89 c7                	mov    %eax,%edi
    2c9c:	c7 04 24 3e bf 00 00 	movl   $0xbf3e,(%esp)
    2ca3:	e8 5b 8a 00 00       	call   b703 <strlen>
    2ca8:	8d 44 07 02          	lea    0x2(%edi,%eax,1),%eax
    2cac:	83 c4 10             	add    $0x10,%esp
    2caf:	39 d8                	cmp    %ebx,%eax
    2cb1:	77 be                	ja     2c71 <test_fork_failure+0x1c>
    2cb3:	83 ec 0c             	sub    $0xc,%esp
    2cb6:	68 17 02 00 00       	push   $0x217
    2cbb:	68 f9 bf 00 00       	push   $0xbff9
    2cc0:	56                   	push   %esi
    2cc1:	68 e0 e0 00 00       	push   $0xe0e0
    2cc6:	6a 01                	push   $0x1
    2cc8:	e8 9a 8e 00 00       	call   bb67 <printf>
    2ccd:	c7 05 40 42 01 00 01 	movl   $0x1,0x14240
    2cd4:	00 00 00 
    2cd7:	83 c4 20             	add    $0x20,%esp
    2cda:	e9 61 03 00 00       	jmp    3040 <test_fork_failure+0x3eb>

    // Update pid limit
    ASSERT_TRUE(write_file(TEST_1_PID_MAX, "1"));
    2cdf:	83 ec 08             	sub    $0x8,%esp
    2ce2:	68 37 c6 00 00       	push   $0xc637
    2ce7:	68 9d c1 00 00       	push   $0xc19d
    2cec:	e8 5d d5 ff ff       	call   24e <write_file>
    2cf1:	83 c4 10             	add    $0x10,%esp
    2cf4:	85 c0                	test   %eax,%eax
    2cf6:	74 19                	je     2d11 <test_fork_failure+0xbc>
    2cf8:	eb 6e                	jmp    2d68 <test_fork_failure+0x113>
    2cfa:	83 ec 08             	sub    $0x8,%esp
    2cfd:	68 3c bf 00 00       	push   $0xbf3c
    2d02:	6a 01                	push   $0x1
    2d04:	e8 5e 8e 00 00       	call   bb67 <printf>
    2d09:	83 c3 01             	add    $0x1,%ebx
    2d0c:	83 c4 10             	add    $0x10,%esp
    2d0f:	eb 05                	jmp    2d16 <test_fork_failure+0xc1>
    2d11:	bb 00 00 00 00       	mov    $0x0,%ebx
    2d16:	83 ec 0c             	sub    $0xc,%esp
    2d19:	68 68 e5 00 00       	push   $0xe568
    2d1e:	e8 e0 89 00 00       	call   b703 <strlen>
    2d23:	89 c7                	mov    %eax,%edi
    2d25:	c7 04 24 3e bf 00 00 	movl   $0xbf3e,(%esp)
    2d2c:	e8 d2 89 00 00       	call   b703 <strlen>
    2d31:	8d 44 07 02          	lea    0x2(%edi,%eax,1),%eax
    2d35:	83 c4 10             	add    $0x10,%esp
    2d38:	39 d8                	cmp    %ebx,%eax
    2d3a:	77 be                	ja     2cfa <test_fork_failure+0xa5>
    2d3c:	83 ec 0c             	sub    $0xc,%esp
    2d3f:	68 1a 02 00 00       	push   $0x21a
    2d44:	68 f9 bf 00 00       	push   $0xbff9
    2d49:	56                   	push   %esi
    2d4a:	68 88 e5 00 00       	push   $0xe588
    2d4f:	6a 01                	push   $0x1
    2d51:	e8 11 8e 00 00       	call   bb67 <printf>
    2d56:	c7 05 40 42 01 00 01 	movl   $0x1,0x14240
    2d5d:	00 00 00 
    2d60:	83 c4 20             	add    $0x20,%esp
    2d63:	e9 d8 02 00 00       	jmp    3040 <test_fork_failure+0x3eb>

    // Move the current process to "/cgroup/test1" cgroup.
    ASSERT_TRUE(move_proc(TEST_1_CGROUP_PROCS, getpid()));
    2d68:	e8 89 8c 00 00       	call   b9f6 <getpid>
    2d6d:	83 ec 08             	sub    $0x8,%esp
    2d70:	50                   	push   %eax
    2d71:	68 06 c1 00 00       	push   $0xc106
    2d76:	e8 bc d7 ff ff       	call   537 <move_proc>
    2d7b:	83 c4 10             	add    $0x10,%esp
    2d7e:	85 c0                	test   %eax,%eax
    2d80:	74 19                	je     2d9b <test_fork_failure+0x146>
    2d82:	eb 6e                	jmp    2df2 <test_fork_failure+0x19d>
    2d84:	83 ec 08             	sub    $0x8,%esp
    2d87:	68 3c bf 00 00       	push   $0xbf3c
    2d8c:	6a 01                	push   $0x1
    2d8e:	e8 d4 8d 00 00       	call   bb67 <printf>
    2d93:	83 c3 01             	add    $0x1,%ebx
    2d96:	83 c4 10             	add    $0x10,%esp
    2d99:	eb 05                	jmp    2da0 <test_fork_failure+0x14b>
    2d9b:	bb 00 00 00 00       	mov    $0x0,%ebx
    2da0:	83 ec 0c             	sub    $0xc,%esp
    2da3:	68 90 e3 00 00       	push   $0xe390
    2da8:	e8 56 89 00 00       	call   b703 <strlen>
    2dad:	89 c7                	mov    %eax,%edi
    2daf:	c7 04 24 3e bf 00 00 	movl   $0xbf3e,(%esp)
    2db6:	e8 48 89 00 00       	call   b703 <strlen>
    2dbb:	8d 44 07 02          	lea    0x2(%edi,%eax,1),%eax
    2dbf:	83 c4 10             	add    $0x10,%esp
    2dc2:	39 d8                	cmp    %ebx,%eax
    2dc4:	77 be                	ja     2d84 <test_fork_failure+0x12f>
    2dc6:	83 ec 0c             	sub    $0xc,%esp
    2dc9:	68 1d 02 00 00       	push   $0x21d
    2dce:	68 f9 bf 00 00       	push   $0xbff9
    2dd3:	56                   	push   %esi
    2dd4:	68 d4 e5 00 00       	push   $0xe5d4
    2dd9:	6a 01                	push   $0x1
    2ddb:	e8 87 8d 00 00       	call   bb67 <printf>
    2de0:	c7 05 40 42 01 00 01 	movl   $0x1,0x14240
    2de7:	00 00 00 
    2dea:	83 c4 20             	add    $0x20,%esp
    2ded:	e9 4e 02 00 00       	jmp    3040 <test_fork_failure+0x3eb>

    // Check that the process we moved is really in "/cgroup/test1" cgroup.
    ASSERT_TRUE(is_pid_in_group(TEST_1_CGROUP_PROCS, getpid()));
    2df2:	e8 ff 8b 00 00       	call   b9f6 <getpid>
    2df7:	83 ec 08             	sub    $0x8,%esp
    2dfa:	50                   	push   %eax
    2dfb:	68 06 c1 00 00       	push   $0xc106
    2e00:	e8 65 d7 ff ff       	call   56a <is_pid_in_group>
    2e05:	83 c4 10             	add    $0x10,%esp
    2e08:	85 c0                	test   %eax,%eax
    2e0a:	74 19                	je     2e25 <test_fork_failure+0x1d0>
    2e0c:	eb 6e                	jmp    2e7c <test_fork_failure+0x227>
    2e0e:	83 ec 08             	sub    $0x8,%esp
    2e11:	68 3c bf 00 00       	push   $0xbf3c
    2e16:	6a 01                	push   $0x1
    2e18:	e8 4a 8d 00 00       	call   bb67 <printf>
    2e1d:	83 c3 01             	add    $0x1,%ebx
    2e20:	83 c4 10             	add    $0x10,%esp
    2e23:	eb 05                	jmp    2e2a <test_fork_failure+0x1d5>
    2e25:	bb 00 00 00 00       	mov    $0x0,%ebx
    2e2a:	83 ec 0c             	sub    $0xc,%esp
    2e2d:	68 10 e4 00 00       	push   $0xe410
    2e32:	e8 cc 88 00 00       	call   b703 <strlen>
    2e37:	89 c7                	mov    %eax,%edi
    2e39:	c7 04 24 3e bf 00 00 	movl   $0xbf3e,(%esp)
    2e40:	e8 be 88 00 00       	call   b703 <strlen>
    2e45:	8d 44 07 02          	lea    0x2(%edi,%eax,1),%eax
    2e49:	83 c4 10             	add    $0x10,%esp
    2e4c:	39 d8                	cmp    %ebx,%eax
    2e4e:	77 be                	ja     2e0e <test_fork_failure+0x1b9>
    2e50:	83 ec 0c             	sub    $0xc,%esp
    2e53:	68 20 02 00 00       	push   $0x220
    2e58:	68 f9 bf 00 00       	push   $0xbff9
    2e5d:	56                   	push   %esi
    2e5e:	68 28 e6 00 00       	push   $0xe628
    2e63:	6a 01                	push   $0x1
    2e65:	e8 fd 8c 00 00       	call   bb67 <printf>
    2e6a:	c7 05 40 42 01 00 01 	movl   $0x1,0x14240
    2e71:	00 00 00 
    2e74:	83 c4 20             	add    $0x20,%esp
    2e77:	e9 c4 01 00 00       	jmp    3040 <test_fork_failure+0x3eb>

    // Attempt to fork, notice this operation should fail and return -1.
    ASSERT_UINT_EQ(fork(), -1);
    2e7c:	e8 ed 8a 00 00       	call   b96e <fork>
    2e81:	83 f8 ff             	cmp    $0xffffffff,%eax
    2e84:	74 2d                	je     2eb3 <test_fork_failure+0x25e>
    2e86:	e8 e3 8a 00 00       	call   b96e <fork>
    2e8b:	83 ec 0c             	sub    $0xc,%esp
    2e8e:	68 23 02 00 00       	push   $0x223
    2e93:	68 f9 bf 00 00       	push   $0xbff9
    2e98:	6a ff                	push   $0xffffffff
    2e9a:	50                   	push   %eax
    2e9b:	56                   	push   %esi
    2e9c:	e8 73 d1 ff ff       	call   14 <print_error>
    2ea1:	c7 05 40 42 01 00 01 	movl   $0x1,0x14240
    2ea8:	00 00 00 
    2eab:	83 c4 20             	add    $0x20,%esp
    2eae:	e9 8d 01 00 00       	jmp    3040 <test_fork_failure+0x3eb>

    // Return the process to root cgroup.
    ASSERT_TRUE(move_proc(ROOT_CGROUP_PROCS, getpid()));
    2eb3:	e8 3e 8b 00 00       	call   b9f6 <getpid>
    2eb8:	83 ec 08             	sub    $0x8,%esp
    2ebb:	50                   	push   %eax
    2ebc:	68 09 c4 00 00       	push   $0xc409
    2ec1:	e8 71 d6 ff ff       	call   537 <move_proc>
    2ec6:	83 c4 10             	add    $0x10,%esp
    2ec9:	85 c0                	test   %eax,%eax
    2ecb:	74 19                	je     2ee6 <test_fork_failure+0x291>
    2ecd:	eb 6e                	jmp    2f3d <test_fork_failure+0x2e8>
    2ecf:	83 ec 08             	sub    $0x8,%esp
    2ed2:	68 3c bf 00 00       	push   $0xbf3c
    2ed7:	6a 01                	push   $0x1
    2ed9:	e8 89 8c 00 00       	call   bb67 <printf>
    2ede:	83 c3 01             	add    $0x1,%ebx
    2ee1:	83 c4 10             	add    $0x10,%esp
    2ee4:	eb 05                	jmp    2eeb <test_fork_failure+0x296>
    2ee6:	bb 00 00 00 00       	mov    $0x0,%ebx
    2eeb:	83 ec 0c             	sub    $0xc,%esp
    2eee:	68 80 e6 00 00       	push   $0xe680
    2ef3:	e8 0b 88 00 00       	call   b703 <strlen>
    2ef8:	89 c7                	mov    %eax,%edi
    2efa:	c7 04 24 3e bf 00 00 	movl   $0xbf3e,(%esp)
    2f01:	e8 fd 87 00 00       	call   b703 <strlen>
    2f06:	8d 44 07 02          	lea    0x2(%edi,%eax,1),%eax
    2f0a:	83 c4 10             	add    $0x10,%esp
    2f0d:	39 d8                	cmp    %ebx,%eax
    2f0f:	77 be                	ja     2ecf <test_fork_failure+0x27a>
    2f11:	83 ec 0c             	sub    $0xc,%esp
    2f14:	68 26 02 00 00       	push   $0x226
    2f19:	68 f9 bf 00 00       	push   $0xbff9
    2f1e:	56                   	push   %esi
    2f1f:	68 a8 e6 00 00       	push   $0xe6a8
    2f24:	6a 01                	push   $0x1
    2f26:	e8 3c 8c 00 00       	call   bb67 <printf>
    2f2b:	c7 05 40 42 01 00 01 	movl   $0x1,0x14240
    2f32:	00 00 00 
    2f35:	83 c4 20             	add    $0x20,%esp
    2f38:	e9 03 01 00 00       	jmp    3040 <test_fork_failure+0x3eb>

    // Check that the process we returned is really in root cgroup.
    ASSERT_TRUE(is_pid_in_group(ROOT_CGROUP_PROCS, getpid()));
    2f3d:	e8 b4 8a 00 00       	call   b9f6 <getpid>
    2f42:	83 ec 08             	sub    $0x8,%esp
    2f45:	50                   	push   %eax
    2f46:	68 09 c4 00 00       	push   $0xc409
    2f4b:	e8 1a d6 ff ff       	call   56a <is_pid_in_group>
    2f50:	83 c4 10             	add    $0x10,%esp
    2f53:	85 c0                	test   %eax,%eax
    2f55:	74 19                	je     2f70 <test_fork_failure+0x31b>
    2f57:	eb 6b                	jmp    2fc4 <test_fork_failure+0x36f>
    2f59:	83 ec 08             	sub    $0x8,%esp
    2f5c:	68 3c bf 00 00       	push   $0xbf3c
    2f61:	6a 01                	push   $0x1
    2f63:	e8 ff 8b 00 00       	call   bb67 <printf>
    2f68:	83 c3 01             	add    $0x1,%ebx
    2f6b:	83 c4 10             	add    $0x10,%esp
    2f6e:	eb 05                	jmp    2f75 <test_fork_failure+0x320>
    2f70:	bb 00 00 00 00       	mov    $0x0,%ebx
    2f75:	83 ec 0c             	sub    $0xc,%esp
    2f78:	68 98 e4 00 00       	push   $0xe498
    2f7d:	e8 81 87 00 00       	call   b703 <strlen>
    2f82:	89 c7                	mov    %eax,%edi
    2f84:	c7 04 24 3e bf 00 00 	movl   $0xbf3e,(%esp)
    2f8b:	e8 73 87 00 00       	call   b703 <strlen>
    2f90:	8d 44 07 02          	lea    0x2(%edi,%eax,1),%eax
    2f94:	83 c4 10             	add    $0x10,%esp
    2f97:	39 d8                	cmp    %ebx,%eax
    2f99:	77 be                	ja     2f59 <test_fork_failure+0x304>
    2f9b:	83 ec 0c             	sub    $0xc,%esp
    2f9e:	68 29 02 00 00       	push   $0x229
    2fa3:	68 f9 bf 00 00       	push   $0xbff9
    2fa8:	56                   	push   %esi
    2fa9:	68 c8 e4 00 00       	push   $0xe4c8
    2fae:	6a 01                	push   $0x1
    2fb0:	e8 b2 8b 00 00       	call   bb67 <printf>
    2fb5:	c7 05 40 42 01 00 01 	movl   $0x1,0x14240
    2fbc:	00 00 00 
    2fbf:	83 c4 20             	add    $0x20,%esp
    2fc2:	eb 7c                	jmp    3040 <test_fork_failure+0x3eb>

    // Disable PID controller
    ASSERT_TRUE(disable_controller(PID_CNT));
    2fc4:	83 ec 0c             	sub    $0xc,%esp
    2fc7:	6a 01                	push   $0x1
    2fc9:	e8 e7 d3 ff ff       	call   3b5 <disable_controller>
    2fce:	83 c4 10             	add    $0x10,%esp
    2fd1:	85 c0                	test   %eax,%eax
    2fd3:	74 19                	je     2fee <test_fork_failure+0x399>
    2fd5:	eb 69                	jmp    3040 <test_fork_failure+0x3eb>
    2fd7:	83 ec 08             	sub    $0x8,%esp
    2fda:	68 3c bf 00 00       	push   $0xbf3c
    2fdf:	6a 01                	push   $0x1
    2fe1:	e8 81 8b 00 00       	call   bb67 <printf>
    2fe6:	83 c3 01             	add    $0x1,%ebx
    2fe9:	83 c4 10             	add    $0x10,%esp
    2fec:	eb 05                	jmp    2ff3 <test_fork_failure+0x39e>
    2fee:	bb 00 00 00 00       	mov    $0x0,%ebx
    2ff3:	83 ec 0c             	sub    $0xc,%esp
    2ff6:	68 1e c4 00 00       	push   $0xc41e
    2ffb:	e8 03 87 00 00       	call   b703 <strlen>
    3000:	89 c7                	mov    %eax,%edi
    3002:	c7 04 24 3e bf 00 00 	movl   $0xbf3e,(%esp)
    3009:	e8 f5 86 00 00       	call   b703 <strlen>
    300e:	8d 44 07 02          	lea    0x2(%edi,%eax,1),%eax
    3012:	83 c4 10             	add    $0x10,%esp
    3015:	39 d8                	cmp    %ebx,%eax
    3017:	77 be                	ja     2fd7 <test_fork_failure+0x382>
    3019:	83 ec 0c             	sub    $0xc,%esp
    301c:	68 2c 02 00 00       	push   $0x22c
    3021:	68 f9 bf 00 00       	push   $0xbff9
    3026:	56                   	push   %esi
    3027:	68 20 e5 00 00       	push   $0xe520
    302c:	6a 01                	push   $0x1
    302e:	e8 34 8b 00 00       	call   bb67 <printf>
    3033:	c7 05 40 42 01 00 01 	movl   $0x1,0x14240
    303a:	00 00 00 
    303d:	83 c4 20             	add    $0x20,%esp
}
    3040:	8d 65 f4             	lea    -0xc(%ebp),%esp
    3043:	5b                   	pop    %ebx
    3044:	5e                   	pop    %esi
    3045:	5f                   	pop    %edi
    3046:	5d                   	pop    %ebp
    3047:	c3                   	ret    

00003048 <test_pid_current>:

TEST(test_pid_current)
{
    3048:	55                   	push   %ebp
    3049:	89 e5                	mov    %esp,%ebp
    304b:	56                   	push   %esi
    304c:	53                   	push   %ebx
    // Move the current process to "/cgroup/test1" cgroup.
    ASSERT_TRUE(move_proc(TEST_1_CGROUP_PROCS, getpid()));
    304d:	e8 a4 89 00 00       	call   b9f6 <getpid>
    3052:	83 ec 08             	sub    $0x8,%esp
    3055:	50                   	push   %eax
    3056:	68 06 c1 00 00       	push   $0xc106
    305b:	e8 d7 d4 ff ff       	call   537 <move_proc>
    3060:	83 c4 10             	add    $0x10,%esp
    3063:	85 c0                	test   %eax,%eax
    3065:	74 19                	je     3080 <test_pid_current+0x38>
    3067:	eb 70                	jmp    30d9 <test_pid_current+0x91>
    3069:	83 ec 08             	sub    $0x8,%esp
    306c:	68 3c bf 00 00       	push   $0xbf3c
    3071:	6a 01                	push   $0x1
    3073:	e8 ef 8a 00 00       	call   bb67 <printf>
    3078:	83 c3 01             	add    $0x1,%ebx
    307b:	83 c4 10             	add    $0x10,%esp
    307e:	eb 05                	jmp    3085 <test_pid_current+0x3d>
    3080:	bb 00 00 00 00       	mov    $0x0,%ebx
    3085:	83 ec 0c             	sub    $0xc,%esp
    3088:	68 90 e3 00 00       	push   $0xe390
    308d:	e8 71 86 00 00       	call   b703 <strlen>
    3092:	89 c6                	mov    %eax,%esi
    3094:	c7 04 24 3e bf 00 00 	movl   $0xbf3e,(%esp)
    309b:	e8 63 86 00 00       	call   b703 <strlen>
    30a0:	8d 44 06 02          	lea    0x2(%esi,%eax,1),%eax
    30a4:	83 c4 10             	add    $0x10,%esp
    30a7:	39 d8                	cmp    %ebx,%eax
    30a9:	77 be                	ja     3069 <test_pid_current+0x21>
    30ab:	83 ec 0c             	sub    $0xc,%esp
    30ae:	68 32 02 00 00       	push   $0x232
    30b3:	68 f9 bf 00 00       	push   $0xbff9
    30b8:	ff 75 08             	pushl  0x8(%ebp)
    30bb:	68 d4 e5 00 00       	push   $0xe5d4
    30c0:	6a 01                	push   $0x1
    30c2:	e8 a0 8a 00 00       	call   bb67 <printf>
    30c7:	c7 05 40 42 01 00 01 	movl   $0x1,0x14240
    30ce:	00 00 00 
    30d1:	83 c4 20             	add    $0x20,%esp
    30d4:	e9 35 02 00 00       	jmp    330e <test_pid_current+0x2c6>

    // Check that the process we moved is really in "/cgroup/test1" cgroup.
    ASSERT_TRUE(is_pid_in_group(TEST_1_CGROUP_PROCS, getpid()));
    30d9:	e8 18 89 00 00       	call   b9f6 <getpid>
    30de:	83 ec 08             	sub    $0x8,%esp
    30e1:	50                   	push   %eax
    30e2:	68 06 c1 00 00       	push   $0xc106
    30e7:	e8 7e d4 ff ff       	call   56a <is_pid_in_group>
    30ec:	83 c4 10             	add    $0x10,%esp
    30ef:	85 c0                	test   %eax,%eax
    30f1:	74 19                	je     310c <test_pid_current+0xc4>
    30f3:	eb 70                	jmp    3165 <test_pid_current+0x11d>
    30f5:	83 ec 08             	sub    $0x8,%esp
    30f8:	68 3c bf 00 00       	push   $0xbf3c
    30fd:	6a 01                	push   $0x1
    30ff:	e8 63 8a 00 00       	call   bb67 <printf>
    3104:	83 c3 01             	add    $0x1,%ebx
    3107:	83 c4 10             	add    $0x10,%esp
    310a:	eb 05                	jmp    3111 <test_pid_current+0xc9>
    310c:	bb 00 00 00 00       	mov    $0x0,%ebx
    3111:	83 ec 0c             	sub    $0xc,%esp
    3114:	68 10 e4 00 00       	push   $0xe410
    3119:	e8 e5 85 00 00       	call   b703 <strlen>
    311e:	89 c6                	mov    %eax,%esi
    3120:	c7 04 24 3e bf 00 00 	movl   $0xbf3e,(%esp)
    3127:	e8 d7 85 00 00       	call   b703 <strlen>
    312c:	8d 44 06 02          	lea    0x2(%esi,%eax,1),%eax
    3130:	83 c4 10             	add    $0x10,%esp
    3133:	39 d8                	cmp    %ebx,%eax
    3135:	77 be                	ja     30f5 <test_pid_current+0xad>
    3137:	83 ec 0c             	sub    $0xc,%esp
    313a:	68 35 02 00 00       	push   $0x235
    313f:	68 f9 bf 00 00       	push   $0xbff9
    3144:	ff 75 08             	pushl  0x8(%ebp)
    3147:	68 28 e6 00 00       	push   $0xe628
    314c:	6a 01                	push   $0x1
    314e:	e8 14 8a 00 00       	call   bb67 <printf>
    3153:	c7 05 40 42 01 00 01 	movl   $0x1,0x14240
    315a:	00 00 00 
    315d:	83 c4 20             	add    $0x20,%esp
    3160:	e9 a9 01 00 00       	jmp    330e <test_pid_current+0x2c6>

    // Check pid.current changed to display 1
    ASSERT_FALSE(strcmp(read_file(TEST_1_PID_CURRENT, 0), "num_of_procs - 1\n"));
    3165:	83 ec 08             	sub    $0x8,%esp
    3168:	6a 00                	push   $0x0
    316a:	68 b3 c1 00 00       	push   $0xc1b3
    316f:	e8 28 d0 ff ff       	call   19c <read_file>
    3174:	83 c4 08             	add    $0x8,%esp
    3177:	68 3a c4 00 00       	push   $0xc43a
    317c:	50                   	push   %eax
    317d:	e8 2b 85 00 00       	call   b6ad <strcmp>
    3182:	83 c4 10             	add    $0x10,%esp
    3185:	85 c0                	test   %eax,%eax
    3187:	75 19                	jne    31a2 <test_pid_current+0x15a>
    3189:	eb 70                	jmp    31fb <test_pid_current+0x1b3>
    318b:	83 ec 08             	sub    $0x8,%esp
    318e:	68 3c bf 00 00       	push   $0xbf3c
    3193:	6a 01                	push   $0x1
    3195:	e8 cd 89 00 00       	call   bb67 <printf>
    319a:	83 c3 01             	add    $0x1,%ebx
    319d:	83 c4 10             	add    $0x10,%esp
    31a0:	eb 05                	jmp    31a7 <test_pid_current+0x15f>
    31a2:	bb 00 00 00 00       	mov    $0x0,%ebx
    31a7:	83 ec 0c             	sub    $0xc,%esp
    31aa:	68 f8 e6 00 00       	push   $0xe6f8
    31af:	e8 4f 85 00 00       	call   b703 <strlen>
    31b4:	89 c6                	mov    %eax,%esi
    31b6:	c7 04 24 3e bf 00 00 	movl   $0xbf3e,(%esp)
    31bd:	e8 41 85 00 00       	call   b703 <strlen>
    31c2:	8d 44 06 02          	lea    0x2(%esi,%eax,1),%eax
    31c6:	83 c4 10             	add    $0x10,%esp
    31c9:	39 d8                	cmp    %ebx,%eax
    31cb:	77 be                	ja     318b <test_pid_current+0x143>
    31cd:	83 ec 0c             	sub    $0xc,%esp
    31d0:	68 38 02 00 00       	push   $0x238
    31d5:	68 f9 bf 00 00       	push   $0xbff9
    31da:	ff 75 08             	pushl  0x8(%ebp)
    31dd:	68 38 e7 00 00       	push   $0xe738
    31e2:	6a 01                	push   $0x1
    31e4:	e8 7e 89 00 00       	call   bb67 <printf>
    31e9:	c7 05 40 42 01 00 01 	movl   $0x1,0x14240
    31f0:	00 00 00 
    31f3:	83 c4 20             	add    $0x20,%esp
    31f6:	e9 13 01 00 00       	jmp    330e <test_pid_current+0x2c6>

    // Return the process to root cgroup.
    ASSERT_TRUE(move_proc(ROOT_CGROUP_PROCS, getpid()));
    31fb:	e8 f6 87 00 00       	call   b9f6 <getpid>
    3200:	83 ec 08             	sub    $0x8,%esp
    3203:	50                   	push   %eax
    3204:	68 09 c4 00 00       	push   $0xc409
    3209:	e8 29 d3 ff ff       	call   537 <move_proc>
    320e:	83 c4 10             	add    $0x10,%esp
    3211:	85 c0                	test   %eax,%eax
    3213:	74 19                	je     322e <test_pid_current+0x1e6>
    3215:	eb 70                	jmp    3287 <test_pid_current+0x23f>
    3217:	83 ec 08             	sub    $0x8,%esp
    321a:	68 3c bf 00 00       	push   $0xbf3c
    321f:	6a 01                	push   $0x1
    3221:	e8 41 89 00 00       	call   bb67 <printf>
    3226:	83 c3 01             	add    $0x1,%ebx
    3229:	83 c4 10             	add    $0x10,%esp
    322c:	eb 05                	jmp    3233 <test_pid_current+0x1eb>
    322e:	bb 00 00 00 00       	mov    $0x0,%ebx
    3233:	83 ec 0c             	sub    $0xc,%esp
    3236:	68 80 e6 00 00       	push   $0xe680
    323b:	e8 c3 84 00 00       	call   b703 <strlen>
    3240:	89 c6                	mov    %eax,%esi
    3242:	c7 04 24 3e bf 00 00 	movl   $0xbf3e,(%esp)
    3249:	e8 b5 84 00 00       	call   b703 <strlen>
    324e:	8d 44 06 02          	lea    0x2(%esi,%eax,1),%eax
    3252:	83 c4 10             	add    $0x10,%esp
    3255:	39 d8                	cmp    %ebx,%eax
    3257:	77 be                	ja     3217 <test_pid_current+0x1cf>
    3259:	83 ec 0c             	sub    $0xc,%esp
    325c:	68 3b 02 00 00       	push   $0x23b
    3261:	68 f9 bf 00 00       	push   $0xbff9
    3266:	ff 75 08             	pushl  0x8(%ebp)
    3269:	68 a8 e6 00 00       	push   $0xe6a8
    326e:	6a 01                	push   $0x1
    3270:	e8 f2 88 00 00       	call   bb67 <printf>
    3275:	c7 05 40 42 01 00 01 	movl   $0x1,0x14240
    327c:	00 00 00 
    327f:	83 c4 20             	add    $0x20,%esp
    3282:	e9 87 00 00 00       	jmp    330e <test_pid_current+0x2c6>

    // Check that the process we returned is really in root cgroup.
    ASSERT_TRUE(is_pid_in_group(ROOT_CGROUP_PROCS, getpid()));
    3287:	e8 6a 87 00 00       	call   b9f6 <getpid>
    328c:	83 ec 08             	sub    $0x8,%esp
    328f:	50                   	push   %eax
    3290:	68 09 c4 00 00       	push   $0xc409
    3295:	e8 d0 d2 ff ff       	call   56a <is_pid_in_group>
    329a:	83 c4 10             	add    $0x10,%esp
    329d:	85 c0                	test   %eax,%eax
    329f:	74 19                	je     32ba <test_pid_current+0x272>
    32a1:	eb 6b                	jmp    330e <test_pid_current+0x2c6>
    32a3:	83 ec 08             	sub    $0x8,%esp
    32a6:	68 3c bf 00 00       	push   $0xbf3c
    32ab:	6a 01                	push   $0x1
    32ad:	e8 b5 88 00 00       	call   bb67 <printf>
    32b2:	83 c3 01             	add    $0x1,%ebx
    32b5:	83 c4 10             	add    $0x10,%esp
    32b8:	eb 05                	jmp    32bf <test_pid_current+0x277>
    32ba:	bb 00 00 00 00       	mov    $0x0,%ebx
    32bf:	83 ec 0c             	sub    $0xc,%esp
    32c2:	68 98 e4 00 00       	push   $0xe498
    32c7:	e8 37 84 00 00       	call   b703 <strlen>
    32cc:	89 c6                	mov    %eax,%esi
    32ce:	c7 04 24 3e bf 00 00 	movl   $0xbf3e,(%esp)
    32d5:	e8 29 84 00 00       	call   b703 <strlen>
    32da:	8d 44 06 02          	lea    0x2(%esi,%eax,1),%eax
    32de:	83 c4 10             	add    $0x10,%esp
    32e1:	39 d8                	cmp    %ebx,%eax
    32e3:	77 be                	ja     32a3 <test_pid_current+0x25b>
    32e5:	83 ec 0c             	sub    $0xc,%esp
    32e8:	68 3e 02 00 00       	push   $0x23e
    32ed:	68 f9 bf 00 00       	push   $0xbff9
    32f2:	ff 75 08             	pushl  0x8(%ebp)
    32f5:	68 c8 e4 00 00       	push   $0xe4c8
    32fa:	6a 01                	push   $0x1
    32fc:	e8 66 88 00 00       	call   bb67 <printf>
    3301:	c7 05 40 42 01 00 01 	movl   $0x1,0x14240
    3308:	00 00 00 
    330b:	83 c4 20             	add    $0x20,%esp
}
    330e:	8d 65 f8             	lea    -0x8(%ebp),%esp
    3311:	5b                   	pop    %ebx
    3312:	5e                   	pop    %esi
    3313:	5d                   	pop    %ebp
    3314:	c3                   	ret    

00003315 <test_moving_process>:

TEST(test_moving_process)
{
    3315:	55                   	push   %ebp
    3316:	89 e5                	mov    %esp,%ebp
    3318:	56                   	push   %esi
    3319:	53                   	push   %ebx
    // Move the current process to "/cgroup/test1" cgroup.
    ASSERT_TRUE(move_proc(TEST_1_CGROUP_PROCS, getpid()));
    331a:	e8 d7 86 00 00       	call   b9f6 <getpid>
    331f:	83 ec 08             	sub    $0x8,%esp
    3322:	50                   	push   %eax
    3323:	68 06 c1 00 00       	push   $0xc106
    3328:	e8 0a d2 ff ff       	call   537 <move_proc>
    332d:	83 c4 10             	add    $0x10,%esp
    3330:	85 c0                	test   %eax,%eax
    3332:	74 19                	je     334d <test_moving_process+0x38>
    3334:	eb 70                	jmp    33a6 <test_moving_process+0x91>
    3336:	83 ec 08             	sub    $0x8,%esp
    3339:	68 3c bf 00 00       	push   $0xbf3c
    333e:	6a 01                	push   $0x1
    3340:	e8 22 88 00 00       	call   bb67 <printf>
    3345:	83 c3 01             	add    $0x1,%ebx
    3348:	83 c4 10             	add    $0x10,%esp
    334b:	eb 05                	jmp    3352 <test_moving_process+0x3d>
    334d:	bb 00 00 00 00       	mov    $0x0,%ebx
    3352:	83 ec 0c             	sub    $0xc,%esp
    3355:	68 90 e3 00 00       	push   $0xe390
    335a:	e8 a4 83 00 00       	call   b703 <strlen>
    335f:	89 c6                	mov    %eax,%esi
    3361:	c7 04 24 3e bf 00 00 	movl   $0xbf3e,(%esp)
    3368:	e8 96 83 00 00       	call   b703 <strlen>
    336d:	8d 44 06 02          	lea    0x2(%esi,%eax,1),%eax
    3371:	83 c4 10             	add    $0x10,%esp
    3374:	39 d8                	cmp    %ebx,%eax
    3376:	77 be                	ja     3336 <test_moving_process+0x21>
    3378:	83 ec 0c             	sub    $0xc,%esp
    337b:	68 44 02 00 00       	push   $0x244
    3380:	68 f9 bf 00 00       	push   $0xbff9
    3385:	ff 75 08             	pushl  0x8(%ebp)
    3388:	68 d4 e5 00 00       	push   $0xe5d4
    338d:	6a 01                	push   $0x1
    338f:	e8 d3 87 00 00       	call   bb67 <printf>
    3394:	c7 05 40 42 01 00 01 	movl   $0x1,0x14240
    339b:	00 00 00 
    339e:	83 c4 20             	add    $0x20,%esp
    33a1:	e9 35 02 00 00       	jmp    35db <test_moving_process+0x2c6>

    // Check that the process we moved is really in "/cgroup/test1" cgroup.
    ASSERT_TRUE(is_pid_in_group(TEST_1_CGROUP_PROCS, getpid()));
    33a6:	e8 4b 86 00 00       	call   b9f6 <getpid>
    33ab:	83 ec 08             	sub    $0x8,%esp
    33ae:	50                   	push   %eax
    33af:	68 06 c1 00 00       	push   $0xc106
    33b4:	e8 b1 d1 ff ff       	call   56a <is_pid_in_group>
    33b9:	83 c4 10             	add    $0x10,%esp
    33bc:	85 c0                	test   %eax,%eax
    33be:	74 19                	je     33d9 <test_moving_process+0xc4>
    33c0:	eb 70                	jmp    3432 <test_moving_process+0x11d>
    33c2:	83 ec 08             	sub    $0x8,%esp
    33c5:	68 3c bf 00 00       	push   $0xbf3c
    33ca:	6a 01                	push   $0x1
    33cc:	e8 96 87 00 00       	call   bb67 <printf>
    33d1:	83 c3 01             	add    $0x1,%ebx
    33d4:	83 c4 10             	add    $0x10,%esp
    33d7:	eb 05                	jmp    33de <test_moving_process+0xc9>
    33d9:	bb 00 00 00 00       	mov    $0x0,%ebx
    33de:	83 ec 0c             	sub    $0xc,%esp
    33e1:	68 10 e4 00 00       	push   $0xe410
    33e6:	e8 18 83 00 00       	call   b703 <strlen>
    33eb:	89 c6                	mov    %eax,%esi
    33ed:	c7 04 24 3e bf 00 00 	movl   $0xbf3e,(%esp)
    33f4:	e8 0a 83 00 00       	call   b703 <strlen>
    33f9:	8d 44 06 02          	lea    0x2(%esi,%eax,1),%eax
    33fd:	83 c4 10             	add    $0x10,%esp
    3400:	39 d8                	cmp    %ebx,%eax
    3402:	77 be                	ja     33c2 <test_moving_process+0xad>
    3404:	83 ec 0c             	sub    $0xc,%esp
    3407:	68 47 02 00 00       	push   $0x247
    340c:	68 f9 bf 00 00       	push   $0xbff9
    3411:	ff 75 08             	pushl  0x8(%ebp)
    3414:	68 28 e6 00 00       	push   $0xe628
    3419:	6a 01                	push   $0x1
    341b:	e8 47 87 00 00       	call   bb67 <printf>
    3420:	c7 05 40 42 01 00 01 	movl   $0x1,0x14240
    3427:	00 00 00 
    342a:	83 c4 20             	add    $0x20,%esp
    342d:	e9 a9 01 00 00       	jmp    35db <test_moving_process+0x2c6>

    // Check that events recorded it correctly.
    ASSERT_FALSE(strcmp(read_file(TEST_1_CGROUP_EVENTS, 0), "populated - 1\nfrozen - 0\n"));
    3432:	83 ec 08             	sub    $0x8,%esp
    3435:	6a 00                	push   $0x0
    3437:	68 21 c1 00 00       	push   $0xc121
    343c:	e8 5b cd ff ff       	call   19c <read_file>
    3441:	83 c4 08             	add    $0x8,%esp
    3444:	68 4c c4 00 00       	push   $0xc44c
    3449:	50                   	push   %eax
    344a:	e8 5e 82 00 00       	call   b6ad <strcmp>
    344f:	83 c4 10             	add    $0x10,%esp
    3452:	85 c0                	test   %eax,%eax
    3454:	75 19                	jne    346f <test_moving_process+0x15a>
    3456:	eb 70                	jmp    34c8 <test_moving_process+0x1b3>
    3458:	83 ec 08             	sub    $0x8,%esp
    345b:	68 3c bf 00 00       	push   $0xbf3c
    3460:	6a 01                	push   $0x1
    3462:	e8 00 87 00 00       	call   bb67 <printf>
    3467:	83 c3 01             	add    $0x1,%ebx
    346a:	83 c4 10             	add    $0x10,%esp
    346d:	eb 05                	jmp    3474 <test_moving_process+0x15f>
    346f:	bb 00 00 00 00       	mov    $0x0,%ebx
    3474:	83 ec 0c             	sub    $0xc,%esp
    3477:	68 a0 e7 00 00       	push   $0xe7a0
    347c:	e8 82 82 00 00       	call   b703 <strlen>
    3481:	89 c6                	mov    %eax,%esi
    3483:	c7 04 24 3e bf 00 00 	movl   $0xbf3e,(%esp)
    348a:	e8 74 82 00 00       	call   b703 <strlen>
    348f:	8d 44 06 02          	lea    0x2(%esi,%eax,1),%eax
    3493:	83 c4 10             	add    $0x10,%esp
    3496:	39 d8                	cmp    %ebx,%eax
    3498:	77 be                	ja     3458 <test_moving_process+0x143>
    349a:	83 ec 0c             	sub    $0xc,%esp
    349d:	68 4a 02 00 00       	push   $0x24a
    34a2:	68 f9 bf 00 00       	push   $0xbff9
    34a7:	ff 75 08             	pushl  0x8(%ebp)
    34aa:	68 ec e7 00 00       	push   $0xe7ec
    34af:	6a 01                	push   $0x1
    34b1:	e8 b1 86 00 00       	call   bb67 <printf>
    34b6:	c7 05 40 42 01 00 01 	movl   $0x1,0x14240
    34bd:	00 00 00 
    34c0:	83 c4 20             	add    $0x20,%esp
    34c3:	e9 13 01 00 00       	jmp    35db <test_moving_process+0x2c6>

    // Return the process to root cgroup.
    ASSERT_TRUE(move_proc(ROOT_CGROUP_PROCS, getpid()));
    34c8:	e8 29 85 00 00       	call   b9f6 <getpid>
    34cd:	83 ec 08             	sub    $0x8,%esp
    34d0:	50                   	push   %eax
    34d1:	68 09 c4 00 00       	push   $0xc409
    34d6:	e8 5c d0 ff ff       	call   537 <move_proc>
    34db:	83 c4 10             	add    $0x10,%esp
    34de:	85 c0                	test   %eax,%eax
    34e0:	74 19                	je     34fb <test_moving_process+0x1e6>
    34e2:	eb 70                	jmp    3554 <test_moving_process+0x23f>
    34e4:	83 ec 08             	sub    $0x8,%esp
    34e7:	68 3c bf 00 00       	push   $0xbf3c
    34ec:	6a 01                	push   $0x1
    34ee:	e8 74 86 00 00       	call   bb67 <printf>
    34f3:	83 c3 01             	add    $0x1,%ebx
    34f6:	83 c4 10             	add    $0x10,%esp
    34f9:	eb 05                	jmp    3500 <test_moving_process+0x1eb>
    34fb:	bb 00 00 00 00       	mov    $0x0,%ebx
    3500:	83 ec 0c             	sub    $0xc,%esp
    3503:	68 80 e6 00 00       	push   $0xe680
    3508:	e8 f6 81 00 00       	call   b703 <strlen>
    350d:	89 c6                	mov    %eax,%esi
    350f:	c7 04 24 3e bf 00 00 	movl   $0xbf3e,(%esp)
    3516:	e8 e8 81 00 00       	call   b703 <strlen>
    351b:	8d 44 06 02          	lea    0x2(%esi,%eax,1),%eax
    351f:	83 c4 10             	add    $0x10,%esp
    3522:	39 d8                	cmp    %ebx,%eax
    3524:	77 be                	ja     34e4 <test_moving_process+0x1cf>
    3526:	83 ec 0c             	sub    $0xc,%esp
    3529:	68 4d 02 00 00       	push   $0x24d
    352e:	68 f9 bf 00 00       	push   $0xbff9
    3533:	ff 75 08             	pushl  0x8(%ebp)
    3536:	68 a8 e6 00 00       	push   $0xe6a8
    353b:	6a 01                	push   $0x1
    353d:	e8 25 86 00 00       	call   bb67 <printf>
    3542:	c7 05 40 42 01 00 01 	movl   $0x1,0x14240
    3549:	00 00 00 
    354c:	83 c4 20             	add    $0x20,%esp
    354f:	e9 87 00 00 00       	jmp    35db <test_moving_process+0x2c6>

    // Check that the process we returned is really in root cgroup.
    ASSERT_TRUE(is_pid_in_group(ROOT_CGROUP_PROCS, getpid()));
    3554:	e8 9d 84 00 00       	call   b9f6 <getpid>
    3559:	83 ec 08             	sub    $0x8,%esp
    355c:	50                   	push   %eax
    355d:	68 09 c4 00 00       	push   $0xc409
    3562:	e8 03 d0 ff ff       	call   56a <is_pid_in_group>
    3567:	83 c4 10             	add    $0x10,%esp
    356a:	85 c0                	test   %eax,%eax
    356c:	74 19                	je     3587 <test_moving_process+0x272>
    356e:	eb 6b                	jmp    35db <test_moving_process+0x2c6>
    3570:	83 ec 08             	sub    $0x8,%esp
    3573:	68 3c bf 00 00       	push   $0xbf3c
    3578:	6a 01                	push   $0x1
    357a:	e8 e8 85 00 00       	call   bb67 <printf>
    357f:	83 c3 01             	add    $0x1,%ebx
    3582:	83 c4 10             	add    $0x10,%esp
    3585:	eb 05                	jmp    358c <test_moving_process+0x277>
    3587:	bb 00 00 00 00       	mov    $0x0,%ebx
    358c:	83 ec 0c             	sub    $0xc,%esp
    358f:	68 98 e4 00 00       	push   $0xe498
    3594:	e8 6a 81 00 00       	call   b703 <strlen>
    3599:	89 c6                	mov    %eax,%esi
    359b:	c7 04 24 3e bf 00 00 	movl   $0xbf3e,(%esp)
    35a2:	e8 5c 81 00 00       	call   b703 <strlen>
    35a7:	8d 44 06 02          	lea    0x2(%esi,%eax,1),%eax
    35ab:	83 c4 10             	add    $0x10,%esp
    35ae:	39 d8                	cmp    %ebx,%eax
    35b0:	77 be                	ja     3570 <test_moving_process+0x25b>
    35b2:	83 ec 0c             	sub    $0xc,%esp
    35b5:	68 50 02 00 00       	push   $0x250
    35ba:	68 f9 bf 00 00       	push   $0xbff9
    35bf:	ff 75 08             	pushl  0x8(%ebp)
    35c2:	68 c8 e4 00 00       	push   $0xe4c8
    35c7:	6a 01                	push   $0x1
    35c9:	e8 99 85 00 00       	call   bb67 <printf>
    35ce:	c7 05 40 42 01 00 01 	movl   $0x1,0x14240
    35d5:	00 00 00 
    35d8:	83 c4 20             	add    $0x20,%esp
}
    35db:	8d 65 f8             	lea    -0x8(%ebp),%esp
    35de:	5b                   	pop    %ebx
    35df:	5e                   	pop    %esi
    35e0:	5d                   	pop    %ebp
    35e1:	c3                   	ret    

000035e2 <test_setting_max_descendants_and_max_depth>:

TEST(test_setting_max_descendants_and_max_depth)
{
    35e2:	55                   	push   %ebp
    35e3:	89 e5                	mov    %esp,%ebp
    35e5:	56                   	push   %esi
    35e6:	53                   	push   %ebx
    // Set new values for max descendants allowed and max depth allowed
    ASSERT_TRUE(write_file(TEST_1_CGROUP_DESCENDANTS, "30"));
    35e7:	83 ec 08             	sub    $0x8,%esp
    35ea:	68 66 c4 00 00       	push   $0xc466
    35ef:	68 30 d0 00 00       	push   $0xd030
    35f4:	e8 55 cc ff ff       	call   24e <write_file>
    35f9:	83 c4 10             	add    $0x10,%esp
    35fc:	85 c0                	test   %eax,%eax
    35fe:	74 19                	je     3619 <test_setting_max_descendants_and_max_depth+0x37>
    3600:	eb 70                	jmp    3672 <test_setting_max_descendants_and_max_depth+0x90>
    3602:	83 ec 08             	sub    $0x8,%esp
    3605:	68 3c bf 00 00       	push   $0xbf3c
    360a:	6a 01                	push   $0x1
    360c:	e8 56 85 00 00       	call   bb67 <printf>
    3611:	83 c3 01             	add    $0x1,%ebx
    3614:	83 c4 10             	add    $0x10,%esp
    3617:	eb 05                	jmp    361e <test_setting_max_descendants_and_max_depth+0x3c>
    3619:	bb 00 00 00 00       	mov    $0x0,%ebx
    361e:	83 ec 0c             	sub    $0xc,%esp
    3621:	68 60 e8 00 00       	push   $0xe860
    3626:	e8 d8 80 00 00       	call   b703 <strlen>
    362b:	89 c6                	mov    %eax,%esi
    362d:	c7 04 24 3e bf 00 00 	movl   $0xbf3e,(%esp)
    3634:	e8 ca 80 00 00       	call   b703 <strlen>
    3639:	8d 44 06 02          	lea    0x2(%esi,%eax,1),%eax
    363d:	83 c4 10             	add    $0x10,%esp
    3640:	39 d8                	cmp    %ebx,%eax
    3642:	77 be                	ja     3602 <test_setting_max_descendants_and_max_depth+0x20>
    3644:	83 ec 0c             	sub    $0xc,%esp
    3647:	68 56 02 00 00       	push   $0x256
    364c:	68 f9 bf 00 00       	push   $0xbff9
    3651:	ff 75 08             	pushl  0x8(%ebp)
    3654:	68 8c e8 00 00       	push   $0xe88c
    3659:	6a 01                	push   $0x1
    365b:	e8 07 85 00 00       	call   bb67 <printf>
    3660:	c7 05 40 42 01 00 01 	movl   $0x1,0x14240
    3667:	00 00 00 
    366a:	83 c4 20             	add    $0x20,%esp
    366d:	e9 b2 01 00 00       	jmp    3824 <test_setting_max_descendants_and_max_depth+0x242>
    ASSERT_TRUE(write_file(TEST_1_CGROUP_MAX_DEPTH, "20"));
    3672:	83 ec 08             	sub    $0x8,%esp
    3675:	68 69 c4 00 00       	push   $0xc469
    367a:	68 d8 d0 00 00       	push   $0xd0d8
    367f:	e8 ca cb ff ff       	call   24e <write_file>
    3684:	83 c4 10             	add    $0x10,%esp
    3687:	85 c0                	test   %eax,%eax
    3689:	74 19                	je     36a4 <test_setting_max_descendants_and_max_depth+0xc2>
    368b:	eb 70                	jmp    36fd <test_setting_max_descendants_and_max_depth+0x11b>
    368d:	83 ec 08             	sub    $0x8,%esp
    3690:	68 3c bf 00 00       	push   $0xbf3c
    3695:	6a 01                	push   $0x1
    3697:	e8 cb 84 00 00       	call   bb67 <printf>
    369c:	83 c3 01             	add    $0x1,%ebx
    369f:	83 c4 10             	add    $0x10,%esp
    36a2:	eb 05                	jmp    36a9 <test_setting_max_descendants_and_max_depth+0xc7>
    36a4:	bb 00 00 00 00       	mov    $0x0,%ebx
    36a9:	83 ec 0c             	sub    $0xc,%esp
    36ac:	68 e4 e8 00 00       	push   $0xe8e4
    36b1:	e8 4d 80 00 00       	call   b703 <strlen>
    36b6:	89 c6                	mov    %eax,%esi
    36b8:	c7 04 24 3e bf 00 00 	movl   $0xbf3e,(%esp)
    36bf:	e8 3f 80 00 00       	call   b703 <strlen>
    36c4:	8d 44 06 02          	lea    0x2(%esi,%eax,1),%eax
    36c8:	83 c4 10             	add    $0x10,%esp
    36cb:	39 d8                	cmp    %ebx,%eax
    36cd:	77 be                	ja     368d <test_setting_max_descendants_and_max_depth+0xab>
    36cf:	83 ec 0c             	sub    $0xc,%esp
    36d2:	68 57 02 00 00       	push   $0x257
    36d7:	68 f9 bf 00 00       	push   $0xbff9
    36dc:	ff 75 08             	pushl  0x8(%ebp)
    36df:	68 10 e9 00 00       	push   $0xe910
    36e4:	6a 01                	push   $0x1
    36e6:	e8 7c 84 00 00       	call   bb67 <printf>
    36eb:	c7 05 40 42 01 00 01 	movl   $0x1,0x14240
    36f2:	00 00 00 
    36f5:	83 c4 20             	add    $0x20,%esp
    36f8:	e9 27 01 00 00       	jmp    3824 <test_setting_max_descendants_and_max_depth+0x242>

    // Check that the values have really been set
    ASSERT_FALSE(strcmp(read_file(TEST_1_CGROUP_DESCENDANTS, 0), "30\n"));
    36fd:	83 ec 08             	sub    $0x8,%esp
    3700:	6a 00                	push   $0x0
    3702:	68 30 d0 00 00       	push   $0xd030
    3707:	e8 90 ca ff ff       	call   19c <read_file>
    370c:	83 c4 08             	add    $0x8,%esp
    370f:	68 6c c4 00 00       	push   $0xc46c
    3714:	50                   	push   %eax
    3715:	e8 93 7f 00 00       	call   b6ad <strcmp>
    371a:	83 c4 10             	add    $0x10,%esp
    371d:	85 c0                	test   %eax,%eax
    371f:	75 19                	jne    373a <test_setting_max_descendants_and_max_depth+0x158>
    3721:	eb 70                	jmp    3793 <test_setting_max_descendants_and_max_depth+0x1b1>
    3723:	83 ec 08             	sub    $0x8,%esp
    3726:	68 3c bf 00 00       	push   $0xbf3c
    372b:	6a 01                	push   $0x1
    372d:	e8 35 84 00 00       	call   bb67 <printf>
    3732:	83 c3 01             	add    $0x1,%ebx
    3735:	83 c4 10             	add    $0x10,%esp
    3738:	eb 05                	jmp    373f <test_setting_max_descendants_and_max_depth+0x15d>
    373a:	bb 00 00 00 00       	mov    $0x0,%ebx
    373f:	83 ec 0c             	sub    $0xc,%esp
    3742:	68 64 e9 00 00       	push   $0xe964
    3747:	e8 b7 7f 00 00       	call   b703 <strlen>
    374c:	89 c6                	mov    %eax,%esi
    374e:	c7 04 24 3e bf 00 00 	movl   $0xbf3e,(%esp)
    3755:	e8 a9 7f 00 00       	call   b703 <strlen>
    375a:	8d 44 06 02          	lea    0x2(%esi,%eax,1),%eax
    375e:	83 c4 10             	add    $0x10,%esp
    3761:	39 d8                	cmp    %ebx,%eax
    3763:	77 be                	ja     3723 <test_setting_max_descendants_and_max_depth+0x141>
    3765:	83 ec 0c             	sub    $0xc,%esp
    3768:	68 5a 02 00 00       	push   $0x25a
    376d:	68 f9 bf 00 00       	push   $0xbff9
    3772:	ff 75 08             	pushl  0x8(%ebp)
    3775:	68 9c e9 00 00       	push   $0xe99c
    377a:	6a 01                	push   $0x1
    377c:	e8 e6 83 00 00       	call   bb67 <printf>
    3781:	c7 05 40 42 01 00 01 	movl   $0x1,0x14240
    3788:	00 00 00 
    378b:	83 c4 20             	add    $0x20,%esp
    378e:	e9 91 00 00 00       	jmp    3824 <test_setting_max_descendants_and_max_depth+0x242>
    ASSERT_FALSE(strcmp(read_file(TEST_1_CGROUP_MAX_DEPTH, 0), "20\n"));
    3793:	83 ec 08             	sub    $0x8,%esp
    3796:	6a 00                	push   $0x0
    3798:	68 d8 d0 00 00       	push   $0xd0d8
    379d:	e8 fa c9 ff ff       	call   19c <read_file>
    37a2:	83 c4 08             	add    $0x8,%esp
    37a5:	68 70 c4 00 00       	push   $0xc470
    37aa:	50                   	push   %eax
    37ab:	e8 fd 7e 00 00       	call   b6ad <strcmp>
    37b0:	83 c4 10             	add    $0x10,%esp
    37b3:	85 c0                	test   %eax,%eax
    37b5:	75 19                	jne    37d0 <test_setting_max_descendants_and_max_depth+0x1ee>
    37b7:	eb 6b                	jmp    3824 <test_setting_max_descendants_and_max_depth+0x242>
    37b9:	83 ec 08             	sub    $0x8,%esp
    37bc:	68 3c bf 00 00       	push   $0xbf3c
    37c1:	6a 01                	push   $0x1
    37c3:	e8 9f 83 00 00       	call   bb67 <printf>
    37c8:	83 c3 01             	add    $0x1,%ebx
    37cb:	83 c4 10             	add    $0x10,%esp
    37ce:	eb 05                	jmp    37d5 <test_setting_max_descendants_and_max_depth+0x1f3>
    37d0:	bb 00 00 00 00       	mov    $0x0,%ebx
    37d5:	83 ec 0c             	sub    $0xc,%esp
    37d8:	68 00 ea 00 00       	push   $0xea00
    37dd:	e8 21 7f 00 00       	call   b703 <strlen>
    37e2:	89 c6                	mov    %eax,%esi
    37e4:	c7 04 24 3e bf 00 00 	movl   $0xbf3e,(%esp)
    37eb:	e8 13 7f 00 00       	call   b703 <strlen>
    37f0:	8d 44 06 02          	lea    0x2(%esi,%eax,1),%eax
    37f4:	83 c4 10             	add    $0x10,%esp
    37f7:	39 d8                	cmp    %ebx,%eax
    37f9:	77 be                	ja     37b9 <test_setting_max_descendants_and_max_depth+0x1d7>
    37fb:	83 ec 0c             	sub    $0xc,%esp
    37fe:	68 5b 02 00 00       	push   $0x25b
    3803:	68 f9 bf 00 00       	push   $0xbff9
    3808:	ff 75 08             	pushl  0x8(%ebp)
    380b:	68 38 ea 00 00       	push   $0xea38
    3810:	6a 01                	push   $0x1
    3812:	e8 50 83 00 00       	call   bb67 <printf>
    3817:	c7 05 40 42 01 00 01 	movl   $0x1,0x14240
    381e:	00 00 00 
    3821:	83 c4 20             	add    $0x20,%esp
}
    3824:	8d 65 f8             	lea    -0x8(%ebp),%esp
    3827:	5b                   	pop    %ebx
    3828:	5e                   	pop    %esi
    3829:	5d                   	pop    %ebp
    382a:	c3                   	ret    

0000382b <test_enable_and_disable_set_controller>:


TEST(test_enable_and_disable_set_controller)
{
    382b:	55                   	push   %ebp
    382c:	89 e5                	mov    %esp,%ebp
    382e:	56                   	push   %esi
    382f:	53                   	push   %ebx
    // Enable cpu set controller.
    ASSERT_TRUE(enable_controller(SET_CNT));
    3830:	83 ec 0c             	sub    $0xc,%esp
    3833:	6a 02                	push   $0x2
    3835:	e8 26 cb ff ff       	call   360 <enable_controller>
    383a:	83 c4 10             	add    $0x10,%esp
    383d:	85 c0                	test   %eax,%eax
    383f:	74 19                	je     385a <test_enable_and_disable_set_controller+0x2f>
    3841:	eb 70                	jmp    38b3 <test_enable_and_disable_set_controller+0x88>
    3843:	83 ec 08             	sub    $0x8,%esp
    3846:	68 3c bf 00 00       	push   $0xbf3c
    384b:	6a 01                	push   $0x1
    384d:	e8 15 83 00 00       	call   bb67 <printf>
    3852:	83 c3 01             	add    $0x1,%ebx
    3855:	83 c4 10             	add    $0x10,%esp
    3858:	eb 05                	jmp    385f <test_enable_and_disable_set_controller+0x34>
    385a:	bb 00 00 00 00       	mov    $0x0,%ebx
    385f:	83 ec 0c             	sub    $0xc,%esp
    3862:	68 74 c4 00 00       	push   $0xc474
    3867:	e8 97 7e 00 00       	call   b703 <strlen>
    386c:	89 c6                	mov    %eax,%esi
    386e:	c7 04 24 3e bf 00 00 	movl   $0xbf3e,(%esp)
    3875:	e8 89 7e 00 00       	call   b703 <strlen>
    387a:	8d 44 06 02          	lea    0x2(%esi,%eax,1),%eax
    387e:	83 c4 10             	add    $0x10,%esp
    3881:	39 d8                	cmp    %ebx,%eax
    3883:	77 be                	ja     3843 <test_enable_and_disable_set_controller+0x18>
    3885:	83 ec 0c             	sub    $0xc,%esp
    3888:	68 62 02 00 00       	push   $0x262
    388d:	68 f9 bf 00 00       	push   $0xbff9
    3892:	ff 75 08             	pushl  0x8(%ebp)
    3895:	68 98 ea 00 00       	push   $0xea98
    389a:	6a 01                	push   $0x1
    389c:	e8 c6 82 00 00       	call   bb67 <printf>
    38a1:	c7 05 40 42 01 00 01 	movl   $0x1,0x14240
    38a8:	00 00 00 
    38ab:	83 c4 20             	add    $0x20,%esp
    38ae:	e9 81 01 00 00       	jmp    3a34 <test_enable_and_disable_set_controller+0x209>

    // Check that cpu set controller is really enabled.
    ASSERT_TRUE(verify_controller_enabled(SET_CNT));
    38b3:	83 ec 0c             	sub    $0xc,%esp
    38b6:	6a 02                	push   $0x2
    38b8:	e8 4d cb ff ff       	call   40a <verify_controller_enabled>
    38bd:	83 c4 10             	add    $0x10,%esp
    38c0:	85 c0                	test   %eax,%eax
    38c2:	74 19                	je     38dd <test_enable_and_disable_set_controller+0xb2>
    38c4:	eb 70                	jmp    3936 <test_enable_and_disable_set_controller+0x10b>
    38c6:	83 ec 08             	sub    $0x8,%esp
    38c9:	68 3c bf 00 00       	push   $0xbf3c
    38ce:	6a 01                	push   $0x1
    38d0:	e8 92 82 00 00       	call   bb67 <printf>
    38d5:	83 c3 01             	add    $0x1,%ebx
    38d8:	83 c4 10             	add    $0x10,%esp
    38db:	eb 05                	jmp    38e2 <test_enable_and_disable_set_controller+0xb7>
    38dd:	bb 00 00 00 00       	mov    $0x0,%ebx
    38e2:	83 ec 0c             	sub    $0xc,%esp
    38e5:	68 dc ea 00 00       	push   $0xeadc
    38ea:	e8 14 7e 00 00       	call   b703 <strlen>
    38ef:	89 c6                	mov    %eax,%esi
    38f1:	c7 04 24 3e bf 00 00 	movl   $0xbf3e,(%esp)
    38f8:	e8 06 7e 00 00       	call   b703 <strlen>
    38fd:	8d 44 06 02          	lea    0x2(%esi,%eax,1),%eax
    3901:	83 c4 10             	add    $0x10,%esp
    3904:	39 d8                	cmp    %ebx,%eax
    3906:	77 be                	ja     38c6 <test_enable_and_disable_set_controller+0x9b>
    3908:	83 ec 0c             	sub    $0xc,%esp
    390b:	68 65 02 00 00       	push   $0x265
    3910:	68 f9 bf 00 00       	push   $0xbff9
    3915:	ff 75 08             	pushl  0x8(%ebp)
    3918:	68 00 eb 00 00       	push   $0xeb00
    391d:	6a 01                	push   $0x1
    391f:	e8 43 82 00 00       	call   bb67 <printf>
    3924:	c7 05 40 42 01 00 01 	movl   $0x1,0x14240
    392b:	00 00 00 
    392e:	83 c4 20             	add    $0x20,%esp
    3931:	e9 fe 00 00 00       	jmp    3a34 <test_enable_and_disable_set_controller+0x209>

    // Disable cpu set controller.
    ASSERT_TRUE(disable_controller(SET_CNT));
    3936:	83 ec 0c             	sub    $0xc,%esp
    3939:	6a 02                	push   $0x2
    393b:	e8 75 ca ff ff       	call   3b5 <disable_controller>
    3940:	83 c4 10             	add    $0x10,%esp
    3943:	85 c0                	test   %eax,%eax
    3945:	74 19                	je     3960 <test_enable_and_disable_set_controller+0x135>
    3947:	eb 6d                	jmp    39b6 <test_enable_and_disable_set_controller+0x18b>
    3949:	83 ec 08             	sub    $0x8,%esp
    394c:	68 3c bf 00 00       	push   $0xbf3c
    3951:	6a 01                	push   $0x1
    3953:	e8 0f 82 00 00       	call   bb67 <printf>
    3958:	83 c3 01             	add    $0x1,%ebx
    395b:	83 c4 10             	add    $0x10,%esp
    395e:	eb 05                	jmp    3965 <test_enable_and_disable_set_controller+0x13a>
    3960:	bb 00 00 00 00       	mov    $0x0,%ebx
    3965:	83 ec 0c             	sub    $0xc,%esp
    3968:	68 8f c4 00 00       	push   $0xc48f
    396d:	e8 91 7d 00 00       	call   b703 <strlen>
    3972:	89 c6                	mov    %eax,%esi
    3974:	c7 04 24 3e bf 00 00 	movl   $0xbf3e,(%esp)
    397b:	e8 83 7d 00 00       	call   b703 <strlen>
    3980:	8d 44 06 02          	lea    0x2(%esi,%eax,1),%eax
    3984:	83 c4 10             	add    $0x10,%esp
    3987:	39 d8                	cmp    %ebx,%eax
    3989:	77 be                	ja     3949 <test_enable_and_disable_set_controller+0x11e>
    398b:	83 ec 0c             	sub    $0xc,%esp
    398e:	68 68 02 00 00       	push   $0x268
    3993:	68 f9 bf 00 00       	push   $0xbff9
    3998:	ff 75 08             	pushl  0x8(%ebp)
    399b:	68 4c eb 00 00       	push   $0xeb4c
    39a0:	6a 01                	push   $0x1
    39a2:	e8 c0 81 00 00       	call   bb67 <printf>
    39a7:	c7 05 40 42 01 00 01 	movl   $0x1,0x14240
    39ae:	00 00 00 
    39b1:	83 c4 20             	add    $0x20,%esp
    39b4:	eb 7e                	jmp    3a34 <test_enable_and_disable_set_controller+0x209>

    // Check that cpu set controller is really disabled.
    ASSERT_TRUE(verify_controller_disabled(SET_CNT));
    39b6:	83 ec 0c             	sub    $0xc,%esp
    39b9:	6a 02                	push   $0x2
    39bb:	e8 da ca ff ff       	call   49a <verify_controller_disabled>
    39c0:	83 c4 10             	add    $0x10,%esp
    39c3:	85 c0                	test   %eax,%eax
    39c5:	74 19                	je     39e0 <test_enable_and_disable_set_controller+0x1b5>
    39c7:	eb 6b                	jmp    3a34 <test_enable_and_disable_set_controller+0x209>
    39c9:	83 ec 08             	sub    $0x8,%esp
    39cc:	68 3c bf 00 00       	push   $0xbf3c
    39d1:	6a 01                	push   $0x1
    39d3:	e8 8f 81 00 00       	call   bb67 <printf>
    39d8:	83 c3 01             	add    $0x1,%ebx
    39db:	83 c4 10             	add    $0x10,%esp
    39de:	eb 05                	jmp    39e5 <test_enable_and_disable_set_controller+0x1ba>
    39e0:	bb 00 00 00 00       	mov    $0x0,%ebx
    39e5:	83 ec 0c             	sub    $0xc,%esp
    39e8:	68 94 eb 00 00       	push   $0xeb94
    39ed:	e8 11 7d 00 00       	call   b703 <strlen>
    39f2:	89 c6                	mov    %eax,%esi
    39f4:	c7 04 24 3e bf 00 00 	movl   $0xbf3e,(%esp)
    39fb:	e8 03 7d 00 00       	call   b703 <strlen>
    3a00:	8d 44 06 02          	lea    0x2(%esi,%eax,1),%eax
    3a04:	83 c4 10             	add    $0x10,%esp
    3a07:	39 d8                	cmp    %ebx,%eax
    3a09:	77 be                	ja     39c9 <test_enable_and_disable_set_controller+0x19e>
    3a0b:	83 ec 0c             	sub    $0xc,%esp
    3a0e:	68 6b 02 00 00       	push   $0x26b
    3a13:	68 f9 bf 00 00       	push   $0xbff9
    3a18:	ff 75 08             	pushl  0x8(%ebp)
    3a1b:	68 b8 eb 00 00       	push   $0xebb8
    3a20:	6a 01                	push   $0x1
    3a22:	e8 40 81 00 00       	call   bb67 <printf>
    3a27:	c7 05 40 42 01 00 01 	movl   $0x1,0x14240
    3a2e:	00 00 00 
    3a31:	83 c4 20             	add    $0x20,%esp
}
    3a34:	8d 65 f8             	lea    -0x8(%ebp),%esp
    3a37:	5b                   	pop    %ebx
    3a38:	5e                   	pop    %esi
    3a39:	5d                   	pop    %ebp
    3a3a:	c3                   	ret    

00003a3b <test_setting_cpu_id>:

TEST(test_setting_cpu_id)
{
    3a3b:	55                   	push   %ebp
    3a3c:	89 e5                	mov    %esp,%ebp
    3a3e:	57                   	push   %edi
    3a3f:	56                   	push   %esi
    3a40:	53                   	push   %ebx
    3a41:	83 ec 18             	sub    $0x18,%esp
    3a44:	8b 7d 08             	mov    0x8(%ebp),%edi
    // Enable cpu set controller.
    ASSERT_TRUE(enable_controller(SET_CNT));
    3a47:	6a 02                	push   $0x2
    3a49:	e8 12 c9 ff ff       	call   360 <enable_controller>
    3a4e:	83 c4 10             	add    $0x10,%esp
